
========================================================================

** ELF Header Information

    File Name: .\obj\Template.axf

    Machine class: ELFCLASS32 (32-bit)
    Data encoding: ELFDATA2LSB (Little endian)
    Header version: EV_CURRENT (Current version)
    Operating System ABI: none
    ABI Version: 0
    File Type: ET_EXEC (Executable) (2)
    Machine: EM_ARM (ARM)

    Image Entry point: 0x000000d5
    Flags: EF_ARM_HASENTRY + EF_ARM_ABI_FLOAT_SOFT (0x05000202)

    ARM ELF revision: 5 (ABI version 2)

    Conforms to Soft float procedure-call standard

    Built with
    Component: ARM Compiler 5.06 update 6 (build 750) Tool: armasm [4d35ec]
    Component: ARM Compiler 5.06 update 6 (build 750) Tool: armlink [4d35ed]

    Header size: 52 bytes (0x34)
    Program header entry size: 32 bytes (0x20)
    Section header entry size: 40 bytes (0x28)

    Program header entries: 1
    Section header entries: 16

    Program header offset: 259764 (0x0003f6b4)
    Section header offset: 259796 (0x0003f6d4)

    Section header string table index: 15

========================================================================

** Program header #0 (PT_LOAD) [PF_X + PF_W + PF_R + PF_ARM_ENTRY]
    Size : 14692 bytes (13580 bytes in file)
    Virtual address: 0x00000000 (Alignment 8)


========================================================================

** Section #1 'ER_RO' (SHT_PROGBITS) [SHF_ALLOC + SHF_EXECINSTR]
    Size   : 13468 bytes (alignment 4)
    Address: 0x00000000

    $d.realdata
    RESET
    __Vectors
        0x00000000:    200004c8    ...     DCD    536872136
        0x00000004:    000000d5    ....    DCD    213
        0x00000008:    000000dd    ....    DCD    221
        0x0000000c:    000000df    ....    DCD    223
        0x00000010:    00000000    ....    DCD    0
        0x00000014:    00000000    ....    DCD    0
        0x00000018:    00000000    ....    DCD    0
        0x0000001c:    00000000    ....    DCD    0
        0x00000020:    00000000    ....    DCD    0
        0x00000024:    00000000    ....    DCD    0
        0x00000028:    00000000    ....    DCD    0
        0x0000002c:    000000ef    ....    DCD    239
        0x00000030:    00000000    ....    DCD    0
        0x00000034:    00000000    ....    DCD    0
        0x00000038:    000000f1    ....    DCD    241
        0x0000003c:    000021d3    .!..    DCD    8659
        0x00000040:    000000f5    ....    DCD    245
        0x00000044:    000000f5    ....    DCD    245
        0x00000048:    000000f5    ....    DCD    245
        0x0000004c:    000000f5    ....    DCD    245
        0x00000050:    000000f5    ....    DCD    245
        0x00000054:    000000f5    ....    DCD    245
        0x00000058:    000000f5    ....    DCD    245
        0x0000005c:    000000f5    ....    DCD    245
        0x00000060:    000000f5    ....    DCD    245
        0x00000064:    00002469    i$..    DCD    9321
        0x00000068:    000000f5    ....    DCD    245
        0x0000006c:    000000f5    ....    DCD    245
        0x00000070:    000024d5    .$..    DCD    9429
        0x00000074:    000000f5    ....    DCD    245
        0x00000078:    000000f5    ....    DCD    245
        0x0000007c:    000000f5    ....    DCD    245
        0x00000080:    000000f5    ....    DCD    245
        0x00000084:    000000f5    ....    DCD    245
        0x00000088:    00000c9d    ....    DCD    3229
        0x0000008c:    00000cdd    ....    DCD    3293
        0x00000090:    000000f5    ....    DCD    245
        0x00000094:    000000f5    ....    DCD    245
        0x00000098:    000000f5    ....    DCD    245
        0x0000009c:    00000a01    ....    DCD    2561
        0x000000a0:    000000f5    ....    DCD    245
        0x000000a4:    000000f5    ....    DCD    245
        0x000000a8:    000000f5    ....    DCD    245
        0x000000ac:    000000f5    ....    DCD    245
        0x000000b0:    000000f5    ....    DCD    245
        0x000000b4:    000003ad    ....    DCD    941
        0x000000b8:    000000f5    ....    DCD    245
        0x000000bc:    000000f5    ....    DCD    245
    $t
    .ARM.Collect$$$$00000000
    .ARM.Collect$$$$00000001
    __main
    _main_stk
        0x000000c0:    4803        .H      LDR      r0,__lit__00000000 ; [0xd0] = 0x200004c8
        0x000000c2:    4685        .F      MOV      sp,r0
    .ARM.Collect$$$$00000004
    _main_scatterload
        0x000000c4:    f000f91a    ....    BL       __scatterload ; 0x2fc
    .ARM.Collect$$$$00000008
    .ARM.Collect$$$$0000000A
    .ARM.Collect$$$$0000000B
    __main_after_scatterload
    _main_clock
    _main_cpp_init
    _main_init
        0x000000c8:    4800        .H      LDR      r0,[pc,#0] ; [0xcc] = 0x30fd
        0x000000ca:    4700        .G      BX       r0
    $d
        0x000000cc:    000030fd    .0..    DCD    12541
    .ARM.Collect$$$$00002712
    __lit__00000000
    .ARM.Collect$$$$0000000D
    .ARM.Collect$$$$0000000F
    __rt_final_cpp
    __rt_final_exit
        0x000000d0:    200004c8    ...     DCD    536872136
    $t
    .text
    Reset_Handler
        0x000000d4:    480c        .H      LDR      r0,[pc,#48] ; [0x108] = 0x22c1
        0x000000d6:    4780        .G      BLX      r0
        0x000000d8:    480c        .H      LDR      r0,[pc,#48] ; [0x10c] = 0xc1
        0x000000da:    4700        .G      BX       r0
    NMI_Handler
        0x000000dc:    e7fe        ..      B        NMI_Handler ; 0xdc
    HardFault_Handler
        0x000000de:    4670        pF      MOV      r0,lr
        0x000000e0:    f3ef8108    ....    MRS      r1,MSP
        0x000000e4:    f3ef8209    ....    MRS      r2,PSP
        0x000000e8:    4b09        .K      LDR      r3,[pc,#36] ; [0x110] = 0x1f25
        0x000000ea:    4798        .G      BLX      r3
        0x000000ec:    4700        .G      BX       r0
    SVC_Handler
        0x000000ee:    e7fe        ..      B        SVC_Handler ; 0xee
    PendSV_Handler
        0x000000f0:    e7fe        ..      B        PendSV_Handler ; 0xf0
        0x000000f2:    e7fe        ..      B        0xf2 ; PendSV_Handler + 2
    Default_Handler
    BOD_IRQHandler
    BPWM_IRQHandler
    DAC23_IRQHandler
    EINT024_IRQHandler
    EINT135_IRQHandler
    GPAB_IRQHandler
    GPCF_IRQHandler
    MANCH_IRQHandler
    PDMA_IRQHandler
    PWRWU_IRQHandler
    SPI0_IRQHandler
    TEMP_IRQHandler
    TMR0_IRQHandler
    TMR2_IRQHandler
    TMR3_IRQHandler
    TMR4_IRQHandler
    TMR5_IRQHandler
    WDT_IRQHandler
        0x000000f4:    e7fe        ..      B        Default_Handler ; 0xf4
    $d
        0x000000f6:    0000        ..      DCW    0
    $t
    SH_DoCommand
        0x000000f8:    beab        ..      BKPT     #0xab
        0x000000fa:    4b06        .K      LDR      r3,[pc,#24] ; [0x114] = 0x1f89
        0x000000fc:    b508        ..      PUSH     {r3,lr}
        0x000000fe:    4798        .G      BLX      r3
        0x00000100:    bd08        ..      POP      {r3,pc}
    __PC
        0x00000102:    4670        pF      MOV      r0,lr
        0x00000104:    47f0        .G      BLX      lr
    $d
        0x00000106:    0000        ..      DCW    0
        0x00000108:    000022c1    ."..    DCD    8897
        0x0000010c:    000000c1    ....    DCD    193
        0x00000110:    00001f25    %...    DCD    7973
        0x00000114:    00001f89    ....    DCD    8073
    $t
    .text
    __aeabi_uidiv
    __aeabi_uidivmod
        0x00000118:    b530        0.      PUSH     {r4,r5,lr}
        0x0000011a:    460b        .F      MOV      r3,r1
        0x0000011c:    4601        .F      MOV      r1,r0
        0x0000011e:    2000        .       MOVS     r0,#0
        0x00000120:    2220         "      MOVS     r2,#0x20
        0x00000122:    2401        .$      MOVS     r4,#1
        0x00000124:    e009        ..      B        0x13a ; __aeabi_uidiv + 34
        0x00000126:    460d        .F      MOV      r5,r1
        0x00000128:    40d5        .@      LSRS     r5,r5,r2
        0x0000012a:    429d        .B      CMP      r5,r3
        0x0000012c:    d305        ..      BCC      0x13a ; __aeabi_uidiv + 34
        0x0000012e:    461d        .F      MOV      r5,r3
        0x00000130:    4095        .@      LSLS     r5,r5,r2
        0x00000132:    1b49        I.      SUBS     r1,r1,r5
        0x00000134:    4625        %F      MOV      r5,r4
        0x00000136:    4095        .@      LSLS     r5,r5,r2
        0x00000138:    1940        @.      ADDS     r0,r0,r5
        0x0000013a:    4615        .F      MOV      r5,r2
        0x0000013c:    1e52        R.      SUBS     r2,r2,#1
        0x0000013e:    2d00        .-      CMP      r5,#0
        0x00000140:    dcf1        ..      BGT      0x126 ; __aeabi_uidiv + 14
        0x00000142:    bd30        0.      POP      {r4,r5,pc}
    .text
    __aeabi_memcpy
    __aeabi_memcpy4
    __aeabi_memcpy8
        0x00000144:    4603        .F      MOV      r3,r0
        0x00000146:    430b        .C      ORRS     r3,r3,r1
        0x00000148:    079b        ..      LSLS     r3,r3,#30
        0x0000014a:    d003        ..      BEQ      0x154 ; __aeabi_memcpy + 16
        0x0000014c:    e009        ..      B        0x162 ; __aeabi_memcpy + 30
        0x0000014e:    c908        ..      LDM      r1!,{r3}
        0x00000150:    1f12        ..      SUBS     r2,r2,#4
        0x00000152:    c008        ..      STM      r0!,{r3}
        0x00000154:    2a04        .*      CMP      r2,#4
        0x00000156:    d2fa        ..      BCS      0x14e ; __aeabi_memcpy + 10
        0x00000158:    e003        ..      B        0x162 ; __aeabi_memcpy + 30
        0x0000015a:    780b        .x      LDRB     r3,[r1,#0]
        0x0000015c:    7003        .p      STRB     r3,[r0,#0]
        0x0000015e:    1c40        @.      ADDS     r0,r0,#1
        0x00000160:    1c49        I.      ADDS     r1,r1,#1
        0x00000162:    1e52        R.      SUBS     r2,r2,#1
        0x00000164:    d2f9        ..      BCS      0x15a ; __aeabi_memcpy + 22
        0x00000166:    4770        pG      BX       lr
    .text
    __aeabi_fdiv
        0x00000168:    b570        p.      PUSH     {r4-r6,lr}
        0x0000016a:    4602        .F      MOV      r2,r0
        0x0000016c:    404a        J@      EORS     r2,r2,r1
        0x0000016e:    0fd5        ..      LSRS     r5,r2,#31
        0x00000170:    0040        @.      LSLS     r0,r0,#1
        0x00000172:    004a        J.      LSLS     r2,r1,#1
        0x00000174:    07ed        ..      LSLS     r5,r5,#31
        0x00000176:    0840        @.      LSRS     r0,r0,#1
        0x00000178:    0852        R.      LSRS     r2,r2,#1
        0x0000017a:    2800        .(      CMP      r0,#0
        0x0000017c:    d014        ..      BEQ      0x1a8 ; __aeabi_fdiv + 64
        0x0000017e:    2a00        .*      CMP      r2,#0
        0x00000180:    d012        ..      BEQ      0x1a8 ; __aeabi_fdiv + 64
        0x00000182:    0dc4        ..      LSRS     r4,r0,#23
        0x00000184:    0dd3        ..      LSRS     r3,r2,#23
        0x00000186:    0241        A.      LSLS     r1,r0,#9
        0x00000188:    2001        .       MOVS     r0,#1
        0x0000018a:    05c0        ..      LSLS     r0,r0,#23
        0x0000018c:    0252        R.      LSLS     r2,r2,#9
        0x0000018e:    0a49        I.      LSRS     r1,r1,#9
        0x00000190:    0a52        R.      LSRS     r2,r2,#9
        0x00000192:    1ae4        ..      SUBS     r4,r4,r3
        0x00000194:    1809        ..      ADDS     r1,r1,r0
        0x00000196:    1812        ..      ADDS     r2,r2,r0
        0x00000198:    347d        }4      ADDS     r4,r4,#0x7d
        0x0000019a:    4291        .B      CMP      r1,r2
        0x0000019c:    d301        ..      BCC      0x1a2 ; __aeabi_fdiv + 58
        0x0000019e:    1c64        d.      ADDS     r4,r4,#1
        0x000001a0:    e000        ..      B        0x1a4 ; __aeabi_fdiv + 60
        0x000001a2:    0049        I.      LSLS     r1,r1,#1
        0x000001a4:    2c00        .,      CMP      r4,#0
        0x000001a6:    da01        ..      BGE      0x1ac ; __aeabi_fdiv + 68
        0x000001a8:    2000        .       MOVS     r0,#0
        0x000001aa:    bd70        p.      POP      {r4-r6,pc}
        0x000001ac:    2300        .#      MOVS     r3,#0
        0x000001ae:    4291        .B      CMP      r1,r2
        0x000001b0:    d301        ..      BCC      0x1b6 ; __aeabi_fdiv + 78
        0x000001b2:    1a89        ..      SUBS     r1,r1,r2
        0x000001b4:    4303        .C      ORRS     r3,r3,r0
        0x000001b6:    0840        @.      LSRS     r0,r0,#1
        0x000001b8:    0049        I.      LSLS     r1,r1,#1
        0x000001ba:    2800        .(      CMP      r0,#0
        0x000001bc:    d1f7        ..      BNE      0x1ae ; __aeabi_fdiv + 70
        0x000001be:    2900        .)      CMP      r1,#0
        0x000001c0:    d00a        ..      BEQ      0x1d8 ; __aeabi_fdiv + 112
        0x000001c2:    4291        .B      CMP      r1,r2
        0x000001c4:    d102        ..      BNE      0x1cc ; __aeabi_fdiv + 100
        0x000001c6:    2101        .!      MOVS     r1,#1
        0x000001c8:    07c9        ..      LSLS     r1,r1,#31
        0x000001ca:    e005        ..      B        0x1d8 ; __aeabi_fdiv + 112
        0x000001cc:    4291        .B      CMP      r1,r2
        0x000001ce:    d201        ..      BCS      0x1d4 ; __aeabi_fdiv + 108
        0x000001d0:    2101        .!      MOVS     r1,#1
        0x000001d2:    e001        ..      B        0x1d8 ; __aeabi_fdiv + 112
        0x000001d4:    2101        .!      MOVS     r1,#1
        0x000001d6:    43c9        .C      MVNS     r1,r1
        0x000001d8:    05e0        ..      LSLS     r0,r4,#23
        0x000001da:    18c0        ..      ADDS     r0,r0,r3
        0x000001dc:    1940        @.      ADDS     r0,r0,r5
        0x000001de:    f000f84c    ..L.    BL       __I$use$fp ; 0x27a
        0x000001e2:    bd70        p.      POP      {r4-r6,pc}
    .text
    __aeabi_ui2f
        0x000001e4:    b510        ..      PUSH     {r4,lr}
        0x000001e6:    2200        ."      MOVS     r2,#0
        0x000001e8:    2396        .#      MOVS     r3,#0x96
        0x000001ea:    4611        .F      MOV      r1,r2
        0x000001ec:    f000f84d    ..M.    BL       _float_epilogue ; 0x28a
        0x000001f0:    bd10        ..      POP      {r4,pc}
    .text
    __aeabi_f2uiz
        0x000001f2:    0041        A.      LSLS     r1,r0,#1
        0x000001f4:    0240        @.      LSLS     r0,r0,#9
        0x000001f6:    2201        ."      MOVS     r2,#1
        0x000001f8:    0a40        @.      LSRS     r0,r0,#9
        0x000001fa:    05d2        ..      LSLS     r2,r2,#23
        0x000001fc:    0e09        ..      LSRS     r1,r1,#24
        0x000001fe:    1880        ..      ADDS     r0,r0,r2
        0x00000200:    297f        .)      CMP      r1,#0x7f
        0x00000202:    da01        ..      BGE      0x208 ; __aeabi_f2uiz + 22
        0x00000204:    2000        .       MOVS     r0,#0
        0x00000206:    4770        pG      BX       lr
        0x00000208:    2996        .)      CMP      r1,#0x96
        0x0000020a:    dc03        ..      BGT      0x214 ; __aeabi_f2uiz + 34
        0x0000020c:    2296        ."      MOVS     r2,#0x96
        0x0000020e:    1a51        Q.      SUBS     r1,r2,r1
        0x00000210:    40c8        .@      LSRS     r0,r0,r1
        0x00000212:    4770        pG      BX       lr
        0x00000214:    3996        .9      SUBS     r1,r1,#0x96
        0x00000216:    4088        .@      LSLS     r0,r0,r1
        0x00000218:    4770        pG      BX       lr
    .text
    __aeabi_uldivmod
        0x0000021a:    b5f0        ..      PUSH     {r4-r7,lr}
        0x0000021c:    b41f        ..      PUSH     {r0-r4}
        0x0000021e:    4606        .F      MOV      r6,r0
        0x00000220:    2000        .       MOVS     r0,#0
        0x00000222:    b082        ..      SUB      sp,sp,#8
        0x00000224:    4605        .F      MOV      r5,r0
        0x00000226:    2440        @$      MOVS     r4,#0x40
        0x00000228:    9101        ..      STR      r1,[sp,#4]
        0x0000022a:    9000        ..      STR      r0,[sp,#0]
        0x0000022c:    e01b        ..      B        0x266 ; __aeabi_uldivmod + 76
        0x0000022e:    9901        ..      LDR      r1,[sp,#4]
        0x00000230:    4622        "F      MOV      r2,r4
        0x00000232:    460f        .F      MOV      r7,r1
        0x00000234:    4630        0F      MOV      r0,r6
        0x00000236:    f000f883    ....    BL       __aeabi_llsr ; 0x340
        0x0000023a:    9a04        ..      LDR      r2,[sp,#0x10]
        0x0000023c:    9b05        ..      LDR      r3,[sp,#0x14]
        0x0000023e:    1a80        ..      SUBS     r0,r0,r2
        0x00000240:    4199        .A      SBCS     r1,r1,r3
        0x00000242:    d310        ..      BCC      0x266 ; __aeabi_uldivmod + 76
        0x00000244:    4610        .F      MOV      r0,r2
        0x00000246:    4619        .F      MOV      r1,r3
        0x00000248:    4622        "F      MOV      r2,r4
        0x0000024a:    f000f869    ..i.    BL       __aeabi_llsl ; 0x320
        0x0000024e:    1a36        6.      SUBS     r6,r6,r0
        0x00000250:    418f        .A      SBCS     r7,r7,r1
        0x00000252:    9701        ..      STR      r7,[sp,#4]
        0x00000254:    4622        "F      MOV      r2,r4
        0x00000256:    2001        .       MOVS     r0,#1
        0x00000258:    2100        .!      MOVS     r1,#0
        0x0000025a:    9f00        ..      LDR      r7,[sp,#0]
        0x0000025c:    f000f860    ..`.    BL       __aeabi_llsl ; 0x320
        0x00000260:    1838        8.      ADDS     r0,r7,r0
        0x00000262:    414d        MA      ADCS     r5,r5,r1
        0x00000264:    9000        ..      STR      r0,[sp,#0]
        0x00000266:    4620         F      MOV      r0,r4
        0x00000268:    1e64        d.      SUBS     r4,r4,#1
        0x0000026a:    2800        .(      CMP      r0,#0
        0x0000026c:    dcdf        ..      BGT      0x22e ; __aeabi_uldivmod + 20
        0x0000026e:    9b01        ..      LDR      r3,[sp,#4]
        0x00000270:    9800        ..      LDR      r0,[sp,#0]
        0x00000272:    4629        )F      MOV      r1,r5
        0x00000274:    4632        2F      MOV      r2,r6
        0x00000276:    b007        ..      ADD      sp,sp,#0x1c
        0x00000278:    bdf0        ..      POP      {r4-r7,pc}
    .text
    .text
    __I$use$fp
    _float_round
        0x0000027a:    2900        .)      CMP      r1,#0
        0x0000027c:    da04        ..      BGE      0x288 ; __I$use$fp + 14
        0x0000027e:    1c40        @.      ADDS     r0,r0,#1
        0x00000280:    0049        I.      LSLS     r1,r1,#1
        0x00000282:    d101        ..      BNE      0x288 ; __I$use$fp + 14
        0x00000284:    0840        @.      LSRS     r0,r0,#1
        0x00000286:    0040        @.      LSLS     r0,r0,#1
        0x00000288:    4770        pG      BX       lr
    _float_epilogue
        0x0000028a:    b470        p.      PUSH     {r4-r6}
        0x0000028c:    2400        .$      MOVS     r4,#0
        0x0000028e:    0c05        ..      LSRS     r5,r0,#16
        0x00000290:    d105        ..      BNE      0x29e ; _float_epilogue + 20
        0x00000292:    2410        .$      MOVS     r4,#0x10
        0x00000294:    0400        ..      LSLS     r0,r0,#16
        0x00000296:    d102        ..      BNE      0x29e ; _float_epilogue + 20
        0x00000298:    2900        .)      CMP      r1,#0
        0x0000029a:    d021        !.      BEQ      0x2e0 ; _float_epilogue + 86
        0x0000029c:    2411        .$      MOVS     r4,#0x11
        0x0000029e:    0e05        ..      LSRS     r5,r0,#24
        0x000002a0:    d101        ..      BNE      0x2a6 ; _float_epilogue + 28
        0x000002a2:    0200        ..      LSLS     r0,r0,#8
        0x000002a4:    3408        .4      ADDS     r4,r4,#8
        0x000002a6:    0f05        ..      LSRS     r5,r0,#28
        0x000002a8:    d101        ..      BNE      0x2ae ; _float_epilogue + 36
        0x000002aa:    0100        ..      LSLS     r0,r0,#4
        0x000002ac:    1d24        $.      ADDS     r4,r4,#4
        0x000002ae:    0f85        ..      LSRS     r5,r0,#30
        0x000002b0:    d101        ..      BNE      0x2b6 ; _float_epilogue + 44
        0x000002b2:    0080        ..      LSLS     r0,r0,#2
        0x000002b4:    1ca4        ..      ADDS     r4,r4,#2
        0x000002b6:    2800        .(      CMP      r0,#0
        0x000002b8:    db01        ..      BLT      0x2be ; _float_epilogue + 52
        0x000002ba:    0040        @.      LSLS     r0,r0,#1
        0x000002bc:    1c64        d.      ADDS     r4,r4,#1
        0x000002be:    2900        .)      CMP      r1,#0
        0x000002c0:    d008        ..      BEQ      0x2d4 ; _float_epilogue + 74
        0x000002c2:    2520         %      MOVS     r5,#0x20
        0x000002c4:    1b2e        ..      SUBS     r6,r5,r4
        0x000002c6:    460d        .F      MOV      r5,r1
        0x000002c8:    40f5        .@      LSRS     r5,r5,r6
        0x000002ca:    40a1        .@      LSLS     r1,r1,r4
        0x000002cc:    d000        ..      BEQ      0x2d0 ; _float_epilogue + 70
        0x000002ce:    2101        .!      MOVS     r1,#1
        0x000002d0:    4329        )C      ORRS     r1,r1,r5
        0x000002d2:    4308        .C      ORRS     r0,r0,r1
        0x000002d4:    0601        ..      LSLS     r1,r0,#24
        0x000002d6:    1b1b        ..      SUBS     r3,r3,r4
        0x000002d8:    0a00        ..      LSRS     r0,r0,#8
        0x000002da:    1ddb        ..      ADDS     r3,r3,#7
        0x000002dc:    d502        ..      BPL      0x2e4 ; _float_epilogue + 90
        0x000002de:    2000        .       MOVS     r0,#0
        0x000002e0:    bc70        p.      POP      {r4-r6}
        0x000002e2:    4770        pG      BX       lr
        0x000002e4:    05db        ..      LSLS     r3,r3,#23
        0x000002e6:    1818        ..      ADDS     r0,r3,r0
        0x000002e8:    1880        ..      ADDS     r0,r0,r2
        0x000002ea:    2900        .)      CMP      r1,#0
        0x000002ec:    daf8        ..      BGE      0x2e0 ; _float_epilogue + 86
        0x000002ee:    1c40        @.      ADDS     r0,r0,#1
        0x000002f0:    0049        I.      LSLS     r1,r1,#1
        0x000002f2:    d1f5        ..      BNE      0x2e0 ; _float_epilogue + 86
        0x000002f4:    bc70        p.      POP      {r4-r6}
        0x000002f6:    0840        @.      LSRS     r0,r0,#1
        0x000002f8:    0040        @.      LSLS     r0,r0,#1
        0x000002fa:    4770        pG      BX       lr
    .text
    __scatterload
    __scatterload_rt2
        0x000002fc:    4c06        .L      LDR      r4,[pc,#24] ; [0x318] = 0x347c
        0x000002fe:    2501        .%      MOVS     r5,#1
        0x00000300:    4e06        .N      LDR      r6,[pc,#24] ; [0x31c] = 0x349c
        0x00000302:    e005        ..      B        0x310 ; __scatterload + 20
        0x00000304:    68e3        .h      LDR      r3,[r4,#0xc]
        0x00000306:    cc07        ..      LDM      r4!,{r0-r2}
        0x00000308:    432b        +C      ORRS     r3,r3,r5
        0x0000030a:    3c0c        .<      SUBS     r4,r4,#0xc
        0x0000030c:    4798        .G      BLX      r3
        0x0000030e:    3410        .4      ADDS     r4,r4,#0x10
        0x00000310:    42b4        .B      CMP      r4,r6
        0x00000312:    d3f7        ..      BCC      0x304 ; __scatterload + 8
        0x00000314:    f7fffed8    ....    BL       __main_after_scatterload ; 0xc8
    $d
        0x00000318:    0000347c    |4..    DCD    13436
        0x0000031c:    0000349c    .4..    DCD    13468
    $t
    .text
    __aeabi_llsl
    _ll_shift_l
        0x00000320:    b510        ..      PUSH     {r4,lr}
        0x00000322:    2a20         *      CMP      r2,#0x20
        0x00000324:    db04        ..      BLT      0x330 ; __aeabi_llsl + 16
        0x00000326:    4601        .F      MOV      r1,r0
        0x00000328:    3a20         :      SUBS     r2,r2,#0x20
        0x0000032a:    4091        .@      LSLS     r1,r1,r2
        0x0000032c:    2000        .       MOVS     r0,#0
        0x0000032e:    bd10        ..      POP      {r4,pc}
        0x00000330:    4091        .@      LSLS     r1,r1,r2
        0x00000332:    2320         #      MOVS     r3,#0x20
        0x00000334:    1a9c        ..      SUBS     r4,r3,r2
        0x00000336:    4603        .F      MOV      r3,r0
        0x00000338:    40e3        .@      LSRS     r3,r3,r4
        0x0000033a:    4319        .C      ORRS     r1,r1,r3
        0x0000033c:    4090        .@      LSLS     r0,r0,r2
        0x0000033e:    bd10        ..      POP      {r4,pc}
    .text
    __aeabi_llsr
    _ll_ushift_r
        0x00000340:    b510        ..      PUSH     {r4,lr}
        0x00000342:    2a20         *      CMP      r2,#0x20
        0x00000344:    db04        ..      BLT      0x350 ; __aeabi_llsr + 16
        0x00000346:    4608        .F      MOV      r0,r1
        0x00000348:    3a20         :      SUBS     r2,r2,#0x20
        0x0000034a:    40d0        .@      LSRS     r0,r0,r2
        0x0000034c:    2100        .!      MOVS     r1,#0
        0x0000034e:    bd10        ..      POP      {r4,pc}
        0x00000350:    460b        .F      MOV      r3,r1
        0x00000352:    40d3        .@      LSRS     r3,r3,r2
        0x00000354:    40d0        .@      LSRS     r0,r0,r2
        0x00000356:    2420         $      MOVS     r4,#0x20
        0x00000358:    1aa2        ..      SUBS     r2,r4,r2
        0x0000035a:    4091        .@      LSLS     r1,r1,r2
        0x0000035c:    4308        .C      ORRS     r0,r0,r1
        0x0000035e:    4619        .F      MOV      r1,r3
        0x00000360:    bd10        ..      POP      {r4,pc}
        0x00000362:    0000        ..      MOVS     r0,r0
    i.ADC_CH_Init
    ADC_CH_Init
        0x00000364:    b510        ..      PUSH     {r4,lr}
        0x00000366:    480f        .H      LDR      r0,[pc,#60] ; [0x3a4] = 0x40043080
        0x00000368:    6800        .h      LDR      r0,[r0,#0]
        0x0000036a:    0840        @.      LSRS     r0,r0,#1
        0x0000036c:    0040        @.      LSLS     r0,r0,#1
        0x0000036e:    490d        .I      LDR      r1,[pc,#52] ; [0x3a4] = 0x40043080
        0x00000370:    6008        .`      STR      r0,[r1,#0]
        0x00000372:    480d        .H      LDR      r0,[pc,#52] ; [0x3a8] = 0x400001c
        0x00000374:    f001fec0    ....    BL       SYS_ResetModule ; 0x20f8
        0x00000378:    480a        .H      LDR      r0,[pc,#40] ; [0x3a4] = 0x40043080
        0x0000037a:    6800        .h      LDR      r0,[r0,#0]
        0x0000037c:    2101        .!      MOVS     r1,#1
        0x0000037e:    4308        .C      ORRS     r0,r0,r1
        0x00000380:    4908        .I      LDR      r1,[pc,#32] ; [0x3a4] = 0x40043080
        0x00000382:    6008        .`      STR      r0,[r1,#0]
        0x00000384:    bf00        ..      NOP      
        0x00000386:    4807        .H      LDR      r0,[pc,#28] ; [0x3a4] = 0x40043080
        0x00000388:    6900        .i      LDR      r0,[r0,#0x10]
        0x0000038a:    2101        .!      MOVS     r1,#1
        0x0000038c:    0609        ..      LSLS     r1,r1,#24
        0x0000038e:    4008        .@      ANDS     r0,r0,r1
        0x00000390:    2800        .(      CMP      r0,#0
        0x00000392:    d0f8        ..      BEQ      0x386 ; ADC_CH_Init + 34
        0x00000394:    22ff        ."      MOVS     r2,#0xff
        0x00000396:    2100        .!      MOVS     r1,#0
        0x00000398:    4802        .H      LDR      r0,[pc,#8] ; [0x3a4] = 0x40043080
        0x0000039a:    3880        .8      SUBS     r0,r0,#0x80
        0x0000039c:    f000f8f2    ....    BL       ADC_SetExtendSampleTime ; 0x584
        0x000003a0:    bd10        ..      POP      {r4,pc}
    $d
        0x000003a2:    0000        ..      DCW    0
        0x000003a4:    40043080    .0.@    DCD    1074016384
        0x000003a8:    0400001c    ....    DCD    67108892
    $t
    i.ADC_IRQHandler
    ADC_IRQHandler
        0x000003ac:    4805        .H      LDR      r0,[pc,#20] ; [0x3c4] = 0x20000020
        0x000003ae:    6800        .h      LDR      r0,[r0,#0]
        0x000003b0:    2110        .!      MOVS     r1,#0x10
        0x000003b2:    4388        .C      BICS     r0,r0,r1
        0x000003b4:    3010        .0      ADDS     r0,r0,#0x10
        0x000003b6:    4903        .I      LDR      r1,[pc,#12] ; [0x3c4] = 0x20000020
        0x000003b8:    6008        .`      STR      r0,[r1,#0]
        0x000003ba:    2001        .       MOVS     r0,#1
        0x000003bc:    4902        .I      LDR      r1,[pc,#8] ; [0x3c8] = 0x40043080
        0x000003be:    6108        .a      STR      r0,[r1,#0x10]
        0x000003c0:    4770        pG      BX       lr
    $d
        0x000003c2:    0000        ..      DCW    0
        0x000003c4:    20000020     ..     DCD    536870944
        0x000003c8:    40043080    .0.@    DCD    1074016384
    $t
    i.ADC_InitChannel
    ADC_InitChannel
        0x000003cc:    b57c        |.      PUSH     {r2-r6,lr}
        0x000003ce:    4605        .F      MOV      r5,r0
        0x000003d0:    2400        .$      MOVS     r4,#0
        0x000003d2:    2000        .       MOVS     r0,#0
        0x000003d4:    9001        ..      STR      r0,[sp,#4]
        0x000003d6:    2600        .&      MOVS     r6,#0
        0x000003d8:    9000        ..      STR      r0,[sp,#0]
        0x000003da:    482f        /H      LDR      r0,[pc,#188] ; [0x498] = 0x20000030
        0x000003dc:    6801        .h      LDR      r1,[r0,#0]
        0x000003de:    2000        .       MOVS     r0,#0
        0x000003e0:    f7fffe9a    ....    BL       __aeabi_uidiv ; 0x118
        0x000003e4:    4606        .F      MOV      r6,r0
        0x000003e6:    2001        .       MOVS     r0,#1
        0x000003e8:    40a8        .@      LSLS     r0,r0,r5
        0x000003ea:    4603        .F      MOV      r3,r0
        0x000003ec:    2200        ."      MOVS     r2,#0
        0x000003ee:    4611        .F      MOV      r1,r2
        0x000003f0:    482a        *H      LDR      r0,[pc,#168] ; [0x49c] = 0x40043000
        0x000003f2:    f000f857    ..W.    BL       ADC_Open ; 0x4a4
        0x000003f6:    bf00        ..      NOP      
        0x000003f8:    e020         .      B        0x43c ; ADC_InitChannel + 112
        0x000003fa:    2001        .       MOVS     r0,#1
        0x000003fc:    4927        'I      LDR      r1,[pc,#156] ; [0x49c] = 0x40043000
        0x000003fe:    3180        .1      ADDS     r1,r1,#0x80
        0x00000400:    6108        .a      STR      r0,[r1,#0x10]
        0x00000402:    4608        .F      MOV      r0,r1
        0x00000404:    6800        .h      LDR      r0,[r0,#0]
        0x00000406:    14c9        ..      ASRS     r1,r1,#19
        0x00000408:    4308        .C      ORRS     r0,r0,r1
        0x0000040a:    4924        $I      LDR      r1,[pc,#144] ; [0x49c] = 0x40043000
        0x0000040c:    3180        .1      ADDS     r1,r1,#0x80
        0x0000040e:    6008        .`      STR      r0,[r1,#0]
        0x00000410:    bf00        ..      NOP      
        0x00000412:    4822        "H      LDR      r0,[pc,#136] ; [0x49c] = 0x40043000
        0x00000414:    3080        .0      ADDS     r0,r0,#0x80
        0x00000416:    6900        .i      LDR      r0,[r0,#0x10]
        0x00000418:    07c0        ..      LSLS     r0,r0,#31
        0x0000041a:    0fc0        ..      LSRS     r0,r0,#31
        0x0000041c:    2800        .(      CMP      r0,#0
        0x0000041e:    d0f8        ..      BEQ      0x412 ; ADC_InitChannel + 70
        0x00000420:    2001        .       MOVS     r0,#1
        0x00000422:    491e        .I      LDR      r1,[pc,#120] ; [0x49c] = 0x40043000
        0x00000424:    3180        .1      ADDS     r1,r1,#0x80
        0x00000426:    6108        .a      STR      r0,[r1,#0x10]
        0x00000428:    00a8        ..      LSLS     r0,r5,#2
        0x0000042a:    491c        .I      LDR      r1,[pc,#112] ; [0x49c] = 0x40043000
        0x0000042c:    1840        @.      ADDS     r0,r0,r1
        0x0000042e:    6800        .h      LDR      r0,[r0,#0]
        0x00000430:    b200        ..      SXTH     r0,r0
        0x00000432:    0061        a.      LSLS     r1,r4,#1
        0x00000434:    4a1a        .J      LDR      r2,[pc,#104] ; [0x4a0] = 0x20000070
        0x00000436:    5250        PR      STRH     r0,[r2,r1]
        0x00000438:    1c60        `.      ADDS     r0,r4,#1
        0x0000043a:    b284        ..      UXTH     r4,r0
        0x0000043c:    2c0c        .,      CMP      r4,#0xc
        0x0000043e:    d3dc        ..      BCC      0x3fa ; ADC_InitChannel + 46
        0x00000440:    210c        .!      MOVS     r1,#0xc
        0x00000442:    4817        .H      LDR      r0,[pc,#92] ; [0x4a0] = 0x20000070
        0x00000444:    f001fea2    ....    BL       Sort_tab ; 0x218c
        0x00000448:    2402        .$      MOVS     r4,#2
        0x0000044a:    e007        ..      B        0x45c ; ADC_InitChannel + 144
        0x0000044c:    0060        `.      LSLS     r0,r4,#1
        0x0000044e:    4914        .I      LDR      r1,[pc,#80] ; [0x4a0] = 0x20000070
        0x00000450:    5e08        .^      LDRSH    r0,[r1,r0]
        0x00000452:    9901        ..      LDR      r1,[sp,#4]
        0x00000454:    1840        @.      ADDS     r0,r0,r1
        0x00000456:    9001        ..      STR      r0,[sp,#4]
        0x00000458:    1c60        `.      ADDS     r0,r4,#1
        0x0000045a:    b284        ..      UXTH     r4,r0
        0x0000045c:    2c0a        .,      CMP      r4,#0xa
        0x0000045e:    d3f5        ..      BCC      0x44c ; ADC_InitChannel + 128
        0x00000460:    9801        ..      LDR      r0,[sp,#4]
        0x00000462:    08c0        ..      LSRS     r0,r0,#3
        0x00000464:    9001        ..      STR      r0,[sp,#4]
        0x00000466:    9801        ..      LDR      r0,[sp,#4]
        0x00000468:    b281        ..      UXTH     r1,r0
        0x0000046a:    9100        ..      STR      r1,[sp,#0]
        0x0000046c:    4668        hF      MOV      r0,sp
        0x0000046e:    8800        ..      LDRH     r0,[r0,#0]
        0x00000470:    42b0        .B      CMP      r0,r6
        0x00000472:    dc01        ..      BGT      0x478 ; ADC_InitChannel + 172
        0x00000474:    4631        1F      MOV      r1,r6
        0x00000476:    e001        ..      B        0x47c ; ADC_InitChannel + 176
        0x00000478:    4668        hF      MOV      r0,sp
        0x0000047a:    8801        ..      LDRH     r1,[r0,#0]
        0x0000047c:    9100        ..      STR      r1,[sp,#0]
        0x0000047e:    4668        hF      MOV      r0,sp
        0x00000480:    8800        ..      LDRH     r0,[r0,#0]
        0x00000482:    2101        .!      MOVS     r1,#1
        0x00000484:    0309        ..      LSLS     r1,r1,#12
        0x00000486:    4288        .B      CMP      r0,r1
        0x00000488:    d300        ..      BCC      0x48c ; ADC_InitChannel + 192
        0x0000048a:    e001        ..      B        0x490 ; ADC_InitChannel + 196
        0x0000048c:    4668        hF      MOV      r0,sp
        0x0000048e:    8801        ..      LDRH     r1,[r0,#0]
        0x00000490:    9100        ..      STR      r1,[sp,#0]
        0x00000492:    4668        hF      MOV      r0,sp
        0x00000494:    8800        ..      LDRH     r0,[r0,#0]
        0x00000496:    bd7c        |.      POP      {r2-r6,pc}
    $d
        0x00000498:    20000030    0..     DCD    536870960
        0x0000049c:    40043000    .0.@    DCD    1074016256
        0x000004a0:    20000070    p..     DCD    536871024
    $t
    i.ADC_Open
    ADC_Open
        0x000004a4:    b570        p.      PUSH     {r4-r6,lr}
        0x000004a6:    4d2d        -M      LDR      r5,[pc,#180] ; [0x55c] = 0x20000000
        0x000004a8:    682c        ,h      LDR      r4,[r5,#0]
        0x000004aa:    2500        .%      MOVS     r5,#0
        0x000004ac:    4e2c        ,N      LDR      r6,[pc,#176] ; [0x560] = 0x2000001c
        0x000004ae:    6035        5`      STR      r5,[r6,#0]
        0x000004b0:    25ff        .%      MOVS     r5,#0xff
        0x000004b2:    3585        .5      ADDS     r5,r5,#0x85
        0x000004b4:    582d        -X      LDR      r5,[r5,r0]
        0x000004b6:    07ed        ..      LSLS     r5,r5,#31
        0x000004b8:    0fed        ..      LSRS     r5,r5,#31
        0x000004ba:    2d00        .-      CMP      r5,#0
        0x000004bc:    d140        @.      BNE      0x540 ; ADC_Open + 156
        0x000004be:    2580        .%      MOVS     r5,#0x80
        0x000004c0:    582d        -X      LDR      r5,[r5,r0]
        0x000004c2:    2601        .&      MOVS     r6,#1
        0x000004c4:    0336        6.      LSLS     r6,r6,#12
        0x000004c6:    4335        5C      ORRS     r5,r5,r6
        0x000004c8:    2680        .&      MOVS     r6,#0x80
        0x000004ca:    5035        5P      STR      r5,[r6,r0]
        0x000004cc:    4d23        #M      LDR      r5,[pc,#140] ; [0x55c] = 0x20000000
        0x000004ce:    682c        ,h      LDR      r4,[r5,#0]
        0x000004d0:    e006        ..      B        0x4e0 ; ADC_Open + 60
        0x000004d2:    1e65        e.      SUBS     r5,r4,#1
        0x000004d4:    1e2c        ,.      SUBS     r4,r5,#0
        0x000004d6:    d103        ..      BNE      0x4e0 ; ADC_Open + 60
        0x000004d8:    1e65        e.      SUBS     r5,r4,#1
        0x000004da:    4e21        !N      LDR      r6,[pc,#132] ; [0x560] = 0x2000001c
        0x000004dc:    6035        5`      STR      r5,[r6,#0]
        0x000004de:    e006        ..      B        0x4ee ; ADC_Open + 74
        0x000004e0:    2580        .%      MOVS     r5,#0x80
        0x000004e2:    582d        -X      LDR      r5,[r5,r0]
        0x000004e4:    2601        .&      MOVS     r6,#1
        0x000004e6:    0336        6.      LSLS     r6,r6,#12
        0x000004e8:    4035        5@      ANDS     r5,r5,r6
        0x000004ea:    42b5        .B      CMP      r5,r6
        0x000004ec:    d0f1        ..      BEQ      0x4d2 ; ADC_Open + 46
        0x000004ee:    bf00        ..      NOP      
        0x000004f0:    25ff        .%      MOVS     r5,#0xff
        0x000004f2:    3585        .5      ADDS     r5,r5,#0x85
        0x000004f4:    582d        -X      LDR      r5,[r5,r0]
        0x000004f6:    2601        .&      MOVS     r6,#1
        0x000004f8:    4335        5C      ORRS     r5,r5,r6
        0x000004fa:    26ff        .&      MOVS     r6,#0xff
        0x000004fc:    3685        .6      ADDS     r6,r6,#0x85
        0x000004fe:    5035        5P      STR      r5,[r6,r0]
        0x00000500:    1f35        5.      SUBS     r5,r6,#4
        0x00000502:    582d        -X      LDR      r5,[r5,r0]
        0x00000504:    2601        .&      MOVS     r6,#1
        0x00000506:    4335        5C      ORRS     r5,r5,r6
        0x00000508:    26ff        .&      MOVS     r6,#0xff
        0x0000050a:    3681        .6      ADDS     r6,r6,#0x81
        0x0000050c:    5035        5P      STR      r5,[r6,r0]
        0x0000050e:    2580        .%      MOVS     r5,#0x80
        0x00000510:    582d        -X      LDR      r5,[r5,r0]
        0x00000512:    2601        .&      MOVS     r6,#1
        0x00000514:    02f6        ..      LSLS     r6,r6,#11
        0x00000516:    4335        5C      ORRS     r5,r5,r6
        0x00000518:    2680        .&      MOVS     r6,#0x80
        0x0000051a:    5035        5P      STR      r5,[r6,r0]
        0x0000051c:    4d0f        .M      LDR      r5,[pc,#60] ; [0x55c] = 0x20000000
        0x0000051e:    682c        ,h      LDR      r4,[r5,#0]
        0x00000520:    e006        ..      B        0x530 ; ADC_Open + 140
        0x00000522:    1e65        e.      SUBS     r5,r4,#1
        0x00000524:    1e2c        ,.      SUBS     r4,r5,#0
        0x00000526:    d103        ..      BNE      0x530 ; ADC_Open + 140
        0x00000528:    1e65        e.      SUBS     r5,r4,#1
        0x0000052a:    4e0d        .N      LDR      r6,[pc,#52] ; [0x560] = 0x2000001c
        0x0000052c:    6035        5`      STR      r5,[r6,#0]
        0x0000052e:    e006        ..      B        0x53e ; ADC_Open + 154
        0x00000530:    25ff        .%      MOVS     r5,#0xff
        0x00000532:    3585        .5      ADDS     r5,r5,#0x85
        0x00000534:    582d        -X      LDR      r5,[r5,r0]
        0x00000536:    07ed        ..      LSLS     r5,r5,#31
        0x00000538:    0fed        ..      LSRS     r5,r5,#31
        0x0000053a:    2d00        .-      CMP      r5,#0
        0x0000053c:    d0f1        ..      BEQ      0x522 ; ADC_Open + 126
        0x0000053e:    bf00        ..      NOP      
        0x00000540:    2580        .%      MOVS     r5,#0x80
        0x00000542:    582d        -X      LDR      r5,[r5,r0]
        0x00000544:    4e07        .N      LDR      r6,[pc,#28] ; [0x564] = 0xfffffbf3
        0x00000546:    4035        5@      ANDS     r5,r5,r6
        0x00000548:    430d        .C      ORRS     r5,r5,r1
        0x0000054a:    4315        .C      ORRS     r5,r5,r2
        0x0000054c:    2680        .&      MOVS     r6,#0x80
        0x0000054e:    5035        5P      STR      r5,[r6,r0]
        0x00000550:    2584        .%      MOVS     r5,#0x84
        0x00000552:    582d        -X      LDR      r5,[r5,r0]
        0x00000554:    2684        .&      MOVS     r6,#0x84
        0x00000556:    5033        3P      STR      r3,[r6,r0]
        0x00000558:    bd70        p.      POP      {r4-r6,pc}
    $d
        0x0000055a:    0000        ..      DCW    0
        0x0000055c:    20000000    ...     DCD    536870912
        0x00000560:    2000001c    ...     DCD    536870940
        0x00000564:    fffffbf3    ....    DCD    4294966259
    $t
    i.ADC_Process
    ADC_Process
        0x00000568:    b510        ..      PUSH     {r4,lr}
        0x0000056a:    200b        .       MOVS     r0,#0xb
        0x0000056c:    f7ffff2e    ....    BL       ADC_InitChannel ; 0x3cc
        0x00000570:    4903        .I      LDR      r1,[pc,#12] ; [0x580] = 0x20000034
        0x00000572:    8008        ..      STRH     r0,[r1,#0]
        0x00000574:    4608        .F      MOV      r0,r1
        0x00000576:    8800        ..      LDRH     r0,[r0,#0]
        0x00000578:    f000f80e    ....    BL       ADC_To_Voltage ; 0x598
        0x0000057c:    bd10        ..      POP      {r4,pc}
    $d
        0x0000057e:    0000        ..      DCW    0
        0x00000580:    20000034    4..     DCD    536870964
    $t
    i.ADC_SetExtendSampleTime
    ADC_SetExtendSampleTime
        0x00000584:    b510        ..      PUSH     {r4,lr}
        0x00000586:    23a0        .#      MOVS     r3,#0xa0
        0x00000588:    581b        .X      LDR      r3,[r3,r0]
        0x0000058a:    0a1b        ..      LSRS     r3,r3,#8
        0x0000058c:    021b        ..      LSLS     r3,r3,#8
        0x0000058e:    4313        .C      ORRS     r3,r3,r2
        0x00000590:    24a0        .$      MOVS     r4,#0xa0
        0x00000592:    5023        #P      STR      r3,[r4,r0]
        0x00000594:    bd10        ..      POP      {r4,pc}
        0x00000596:    0000        ..      MOVS     r0,r0
    i.ADC_To_Voltage
    ADC_To_Voltage
        0x00000598:    b5fe        ..      PUSH     {r1-r7,lr}
        0x0000059a:    4604        .F      MOV      r4,r0
        0x0000059c:    2500        .%      MOVS     r5,#0
        0x0000059e:    4910        .I      LDR      r1,[pc,#64] ; [0x5e0] = 0x20000030
        0x000005a0:    6809        .h      LDR      r1,[r1,#0]
        0x000005a2:    4361        aC      MULS     r1,r4,r1
        0x000005a4:    4608        .F      MOV      r0,r1
        0x000005a6:    f7fffe1d    ....    BL       __aeabi_ui2f ; 0x1e4
        0x000005aa:    4607        .F      MOV      r7,r0
        0x000005ac:    490d        .I      LDR      r1,[pc,#52] ; [0x5e4] = 0x457ff000
        0x000005ae:    f7fffddb    ....    BL       __aeabi_fdiv ; 0x168
        0x000005b2:    4606        .F      MOV      r6,r0
        0x000005b4:    f7fffe1d    ....    BL       __aeabi_f2uiz ; 0x1f2
        0x000005b8:    b285        ..      UXTH     r5,r0
        0x000005ba:    480b        .H      LDR      r0,[pc,#44] ; [0x5e8] = 0x20000020
        0x000005bc:    7800        .x      LDRB     r0,[r0,#0]
        0x000005be:    0700        ..      LSLS     r0,r0,#28
        0x000005c0:    0fc0        ..      LSRS     r0,r0,#31
        0x000005c2:    2800        .(      CMP      r0,#0
        0x000005c4:    d009        ..      BEQ      0x5da ; ADC_To_Voltage + 66
        0x000005c6:    4806        .H      LDR      r0,[pc,#24] ; [0x5e0] = 0x20000030
        0x000005c8:    6800        .h      LDR      r0,[r0,#0]
        0x000005ca:    4623        #F      MOV      r3,r4
        0x000005cc:    4622        "F      MOV      r2,r4
        0x000005ce:    4907        .I      LDR      r1,[pc,#28] ; [0x5ec] = 0x3451
        0x000005d0:    9500        ..      STR      r5,[sp,#0]
        0x000005d2:    9001        ..      STR      r0,[sp,#4]
        0x000005d4:    a006        ..      ADR      r0,{pc}+0x1c ; 0x5f0
        0x000005d6:    f002f927    ..'.    BL       __0printf$8 ; 0x2828
        0x000005da:    4628        (F      MOV      r0,r5
        0x000005dc:    bdfe        ..      POP      {r1-r7,pc}
    $d
        0x000005de:    0000        ..      DCW    0
        0x000005e0:    20000030    0..     DCD    536870960
        0x000005e4:    457ff000    ...E    DCD    1166012416
        0x000005e8:    20000020     ..     DCD    536870944
        0x000005ec:    00003451    Q4..    DCD    13393
        0x000005f0:    305b7325    %s[0    DCD    811299621
        0x000005f4:    58342578    x%4X    DCD    1479812472
        0x000005f8:    6434252c    ,%4d    DCD    1681138988
        0x000005fc:    6434255d    ]%4d    DCD    1681139037
        0x00000600:    412c766d    mv,A    DCD    1093432941
        0x00000604:    20646456    Vdd     DCD    543450198
        0x00000608:    3425203d    = %4    DCD    874848317
        0x0000060c:    0d766d64    dmv.    DCD    225865060
        0x00000610:    0000000a    ....    DCD    10
    $t
    i.ADC_VREF_Init
    ADC_VREF_Init
        0x00000614:    b510        ..      PUSH     {r4,lr}
        0x00000616:    f000fb2f    ../.    BL       GetAVDDVoltage ; 0xc78
        0x0000061a:    4904        .I      LDR      r1,[pc,#16] ; [0x62c] = 0x20000030
        0x0000061c:    6008        .`      STR      r0,[r1,#0]
        0x0000061e:    4608        .F      MOV      r0,r1
        0x00000620:    6801        .h      LDR      r1,[r0,#0]
        0x00000622:    a003        ..      ADR      r0,{pc}+0xe ; 0x630
        0x00000624:    f002f900    ....    BL       __0printf$8 ; 0x2828
        0x00000628:    bd10        ..      POP      {r4,pc}
    $d
        0x0000062a:    0000        ..      DCW    0
        0x0000062c:    20000030    0..     DCD    536870960
        0x00000630:    44445641    AVDD    DCD    1145329217
        0x00000634:    6c6f5620     Vol    DCD    1819235872
        0x00000638:    65676174    tage    DCD    1701273972
        0x0000063c:    6425203a    : %d    DCD    1680154682
        0x00000640:    0a0d566d    mV..    DCD    168646253
        0x00000644:    00000000    ....    DCD    0
    $t
    i.CLK_EnableModuleClock
    CLK_EnableModuleClock
        0x00000648:    b50e        ..      PUSH     {r1-r3,lr}
        0x0000064a:    4b0d        .K      LDR      r3,[pc,#52] ; [0x680] = 0x320c
        0x0000064c:    681a        .h      LDR      r2,[r3,#0]
        0x0000064e:    6859        Yh      LDR      r1,[r3,#4]
        0x00000650:    689b        .h      LDR      r3,[r3,#8]
        0x00000652:    9302        ..      STR      r3,[sp,#8]
        0x00000654:    9200        ..      STR      r2,[sp,#0]
        0x00000656:    9101        ..      STR      r1,[sp,#4]
        0x00000658:    0f81        ..      LSRS     r1,r0,#30
        0x0000065a:    0089        ..      LSLS     r1,r1,#2
        0x0000065c:    466a        jF      MOV      r2,sp
        0x0000065e:    5851        QX      LDR      r1,[r2,r1]
        0x00000660:    4a08        .J      LDR      r2,[pc,#32] ; [0x684] = 0x40000200
        0x00000662:    1889        ..      ADDS     r1,r1,r2
        0x00000664:    6849        Ih      LDR      r1,[r1,#4]
        0x00000666:    06c3        ..      LSLS     r3,r0,#27
        0x00000668:    0edb        ..      LSRS     r3,r3,#27
        0x0000066a:    2201        ."      MOVS     r2,#1
        0x0000066c:    409a        .@      LSLS     r2,r2,r3
        0x0000066e:    4311        .C      ORRS     r1,r1,r2
        0x00000670:    0f82        ..      LSRS     r2,r0,#30
        0x00000672:    0092        ..      LSLS     r2,r2,#2
        0x00000674:    466b        kF      MOV      r3,sp
        0x00000676:    589a        .X      LDR      r2,[r3,r2]
        0x00000678:    4b02        .K      LDR      r3,[pc,#8] ; [0x684] = 0x40000200
        0x0000067a:    18d2        ..      ADDS     r2,r2,r3
        0x0000067c:    6051        Q`      STR      r1,[r2,#4]
        0x0000067e:    bd0e        ..      POP      {r1-r3,pc}
    $d
        0x00000680:    0000320c    .2..    DCD    12812
        0x00000684:    40000200    ...@    DCD    1073742336
    $t
    i.CLK_EnableXtalRC
    CLK_EnableXtalRC
        0x00000688:    4902        .I      LDR      r1,[pc,#8] ; [0x694] = 0x40000200
        0x0000068a:    6809        .h      LDR      r1,[r1,#0]
        0x0000068c:    4301        .C      ORRS     r1,r1,r0
        0x0000068e:    4a01        .J      LDR      r2,[pc,#4] ; [0x694] = 0x40000200
        0x00000690:    6011        .`      STR      r1,[r2,#0]
        0x00000692:    4770        pG      BX       lr
    $d
        0x00000694:    40000200    ...@    DCD    1073742336
    $t
    i.CLK_GetCPUFreq
    CLK_GetCPUFreq
        0x00000698:    b510        ..      PUSH     {r4,lr}
        0x0000069a:    f001fddf    ....    BL       SystemCoreClockUpdate ; 0x225c
        0x0000069e:    4801        .H      LDR      r0,[pc,#4] ; [0x6a4] = 0x20000000
        0x000006a0:    6800        .h      LDR      r0,[r0,#0]
        0x000006a2:    bd10        ..      POP      {r4,pc}
    $d
        0x000006a4:    20000000    ...     DCD    536870912
    $t
    i.CLK_GetHCLKFreq
    CLK_GetHCLKFreq
        0x000006a8:    b510        ..      PUSH     {r4,lr}
        0x000006aa:    f001fdd7    ....    BL       SystemCoreClockUpdate ; 0x225c
        0x000006ae:    4801        .H      LDR      r0,[pc,#4] ; [0x6b4] = 0x20000000
        0x000006b0:    6800        .h      LDR      r0,[r0,#0]
        0x000006b2:    bd10        ..      POP      {r4,pc}
    $d
        0x000006b4:    20000000    ...     DCD    536870912
    $t
    i.CLK_GetPCLK0Freq
    CLK_GetPCLK0Freq
        0x000006b8:    b510        ..      PUSH     {r4,lr}
        0x000006ba:    f001fdcf    ....    BL       SystemCoreClockUpdate ; 0x225c
        0x000006be:    4804        .H      LDR      r0,[pc,#16] ; [0x6d0] = 0x40000200
        0x000006c0:    6b40        @k      LDR      r0,[r0,#0x34]
        0x000006c2:    0744        D.      LSLS     r4,r0,#29
        0x000006c4:    0f64        d.      LSRS     r4,r4,#29
        0x000006c6:    4803        .H      LDR      r0,[pc,#12] ; [0x6d4] = 0x20000000
        0x000006c8:    6800        .h      LDR      r0,[r0,#0]
        0x000006ca:    40e0        .@      LSRS     r0,r0,r4
        0x000006cc:    bd10        ..      POP      {r4,pc}
    $d
        0x000006ce:    0000        ..      DCW    0
        0x000006d0:    40000200    ...@    DCD    1073742336
        0x000006d4:    20000000    ...     DCD    536870912
    $t
    i.CLK_GetPCLK1Freq
    CLK_GetPCLK1Freq
        0x000006d8:    b510        ..      PUSH     {r4,lr}
        0x000006da:    f001fdbf    ....    BL       SystemCoreClockUpdate ; 0x225c
        0x000006de:    4804        .H      LDR      r0,[pc,#16] ; [0x6f0] = 0x40000200
        0x000006e0:    6b40        @k      LDR      r0,[r0,#0x34]
        0x000006e2:    2170        p!      MOVS     r1,#0x70
        0x000006e4:    4008        .@      ANDS     r0,r0,r1
        0x000006e6:    0904        ..      LSRS     r4,r0,#4
        0x000006e8:    4802        .H      LDR      r0,[pc,#8] ; [0x6f4] = 0x20000000
        0x000006ea:    6800        .h      LDR      r0,[r0,#0]
        0x000006ec:    40e0        .@      LSRS     r0,r0,r4
        0x000006ee:    bd10        ..      POP      {r4,pc}
    $d
        0x000006f0:    40000200    ...@    DCD    1073742336
        0x000006f4:    20000000    ...     DCD    536870912
    $t
    i.CLK_GetPLLClockFreq
    CLK_GetPLLClockFreq
        0x000006f8:    b5fe        ..      PUSH     {r1-r7,lr}
        0x000006fa:    a017        ..      ADR      r0,{pc}+0x5e ; 0x758
        0x000006fc:    6800        .h      LDR      r0,[r0,#0]
        0x000006fe:    9000        ..      STR      r0,[sp,#0]
        0x00000700:    2000        .       MOVS     r0,#0
        0x00000702:    9002        ..      STR      r0,[sp,#8]
        0x00000704:    4815        .H      LDR      r0,[pc,#84] ; [0x75c] = 0x40000240
        0x00000706:    6804        .h      LDR      r4,[r0,#0]
        0x00000708:    2005        .       MOVS     r0,#5
        0x0000070a:    0400        ..      LSLS     r0,r0,#16
        0x0000070c:    4020         @      ANDS     r0,r0,r4
        0x0000070e:    2800        .(      CMP      r0,#0
        0x00000710:    d120         .      BNE      0x754 ; CLK_GetPLLClockFreq + 92
        0x00000712:    4d13        .M      LDR      r5,[pc,#76] ; [0x760] = 0xb71b00
        0x00000714:    2001        .       MOVS     r0,#1
        0x00000716:    0440        @.      LSLS     r0,r0,#17
        0x00000718:    4020         @      ANDS     r0,r0,r4
        0x0000071a:    2800        .(      CMP      r0,#0
        0x0000071c:    d001        ..      BEQ      0x722 ; CLK_GetPLLClockFreq + 42
        0x0000071e:    9502        ..      STR      r5,[sp,#8]
        0x00000720:    e018        ..      B        0x754 ; CLK_GetPLLClockFreq + 92
        0x00000722:    2003        .       MOVS     r0,#3
        0x00000724:    0380        ..      LSLS     r0,r0,#14
        0x00000726:    4020         @      ANDS     r0,r0,r4
        0x00000728:    0b80        ..      LSRS     r0,r0,#14
        0x0000072a:    4669        iF      MOV      r1,sp
        0x0000072c:    5c0a        .\      LDRB     r2,[r1,r0]
        0x0000072e:    9201        ..      STR      r2,[sp,#4]
        0x00000730:    05e0        ..      LSLS     r0,r4,#23
        0x00000732:    0dc0        ..      LSRS     r0,r0,#23
        0x00000734:    1c86        ..      ADDS     r6,r0,#2
        0x00000736:    201f        .       MOVS     r0,#0x1f
        0x00000738:    0240        @.      LSLS     r0,r0,#9
        0x0000073a:    4020         @      ANDS     r0,r0,r4
        0x0000073c:    0a40        @.      LSRS     r0,r0,#9
        0x0000073e:    1c87        ..      ADDS     r7,r0,#2
        0x00000740:    9a01        ..      LDR      r2,[sp,#4]
        0x00000742:    437a        zC      MULS     r2,r7,r2
        0x00000744:    4611        .F      MOV      r1,r2
        0x00000746:    08aa        ..      LSRS     r2,r5,#2
        0x00000748:    4372        rC      MULS     r2,r6,r2
        0x0000074a:    4610        .F      MOV      r0,r2
        0x0000074c:    f7fffce4    ....    BL       __aeabi_uidiv ; 0x118
        0x00000750:    0080        ..      LSLS     r0,r0,#2
        0x00000752:    9002        ..      STR      r0,[sp,#8]
        0x00000754:    9802        ..      LDR      r0,[sp,#8]
        0x00000756:    bdfe        ..      POP      {r1-r7,pc}
    $d
        0x00000758:    04020201    ....    DCD    67240449
        0x0000075c:    40000240    @..@    DCD    1073742400
        0x00000760:    00b71b00    ....    DCD    12000000
    $t
    i.CLK_SetHCLK
    CLK_SetHCLK
        0x00000764:    b570        p.      PUSH     {r4-r6,lr}
        0x00000766:    4604        .F      MOV      r4,r0
        0x00000768:    460d        .F      MOV      r5,r1
        0x0000076a:    4819        .H      LDR      r0,[pc,#100] ; [0x7d0] = 0x40000240
        0x0000076c:    6900        .i      LDR      r0,[r0,#0x10]
        0x0000076e:    2110        .!      MOVS     r1,#0x10
        0x00000770:    4008        .@      ANDS     r0,r0,r1
        0x00000772:    4606        .F      MOV      r6,r0
        0x00000774:    4816        .H      LDR      r0,[pc,#88] ; [0x7d0] = 0x40000240
        0x00000776:    3840        @8      SUBS     r0,r0,#0x40
        0x00000778:    6800        .h      LDR      r0,[r0,#0]
        0x0000077a:    2104        .!      MOVS     r1,#4
        0x0000077c:    4308        .C      ORRS     r0,r0,r1
        0x0000077e:    4914        .I      LDR      r1,[pc,#80] ; [0x7d0] = 0x40000240
        0x00000780:    3940        @9      SUBS     r1,r1,#0x40
        0x00000782:    6008        .`      STR      r0,[r1,#0]
        0x00000784:    2010        .       MOVS     r0,#0x10
        0x00000786:    f000f895    ....    BL       CLK_WaitClockReady ; 0x8b4
        0x0000078a:    4811        .H      LDR      r0,[pc,#68] ; [0x7d0] = 0x40000240
        0x0000078c:    3840        @8      SUBS     r0,r0,#0x40
        0x0000078e:    6900        .i      LDR      r0,[r0,#0x10]
        0x00000790:    08c0        ..      LSRS     r0,r0,#3
        0x00000792:    00c0        ..      LSLS     r0,r0,#3
        0x00000794:    1dc0        ..      ADDS     r0,r0,#7
        0x00000796:    490e        .I      LDR      r1,[pc,#56] ; [0x7d0] = 0x40000240
        0x00000798:    3940        @9      SUBS     r1,r1,#0x40
        0x0000079a:    6108        .a      STR      r0,[r1,#0x10]
        0x0000079c:    4608        .F      MOV      r0,r1
        0x0000079e:    6a00        .j      LDR      r0,[r0,#0x20]
        0x000007a0:    0900        ..      LSRS     r0,r0,#4
        0x000007a2:    0100        ..      LSLS     r0,r0,#4
        0x000007a4:    4328        (C      ORRS     r0,r0,r5
        0x000007a6:    6208        .b      STR      r0,[r1,#0x20]
        0x000007a8:    4608        .F      MOV      r0,r1
        0x000007aa:    6900        .i      LDR      r0,[r0,#0x10]
        0x000007ac:    08c0        ..      LSRS     r0,r0,#3
        0x000007ae:    00c0        ..      LSLS     r0,r0,#3
        0x000007b0:    4320         C      ORRS     r0,r0,r4
        0x000007b2:    6108        .a      STR      r0,[r1,#0x10]
        0x000007b4:    f001fd52    ..R.    BL       SystemCoreClockUpdate ; 0x225c
        0x000007b8:    2e00        ..      CMP      r6,#0
        0x000007ba:    d107        ..      BNE      0x7cc ; CLK_SetHCLK + 104
        0x000007bc:    4804        .H      LDR      r0,[pc,#16] ; [0x7d0] = 0x40000240
        0x000007be:    3840        @8      SUBS     r0,r0,#0x40
        0x000007c0:    6800        .h      LDR      r0,[r0,#0]
        0x000007c2:    2104        .!      MOVS     r1,#4
        0x000007c4:    4388        .C      BICS     r0,r0,r1
        0x000007c6:    4902        .I      LDR      r1,[pc,#8] ; [0x7d0] = 0x40000240
        0x000007c8:    3940        @9      SUBS     r1,r1,#0x40
        0x000007ca:    6008        .`      STR      r0,[r1,#0]
        0x000007cc:    bd70        p.      POP      {r4-r6,pc}
    $d
        0x000007ce:    0000        ..      DCW    0
        0x000007d0:    40000240    @..@    DCD    1073742400
    $t
    i.CLK_SetModuleClock
    CLK_SetModuleClock
        0x000007d4:    b5f7        ..      PUSH     {r0-r2,r4-r7,lr}
        0x000007d6:    b088        ..      SUB      sp,sp,#0x20
        0x000007d8:    2200        ."      MOVS     r2,#0
        0x000007da:    2300        .#      MOVS     r3,#0
        0x000007dc:    4c1e        .L      LDR      r4,[pc,#120] ; [0x858] = 0x31ec
        0x000007de:    4625        %F      MOV      r5,r4
        0x000007e0:    cde0        ..      LDM      r5,{r5-r7}
        0x000007e2:    68e4        .h      LDR      r4,[r4,#0xc]
        0x000007e4:    9706        ..      STR      r7,[sp,#0x18]
        0x000007e6:    9605        ..      STR      r6,[sp,#0x14]
        0x000007e8:    9504        ..      STR      r5,[sp,#0x10]
        0x000007ea:    9407        ..      STR      r4,[sp,#0x1c]
        0x000007ec:    4c1a        .L      LDR      r4,[pc,#104] ; [0x858] = 0x31ec
        0x000007ee:    3410        .4      ADDS     r4,r4,#0x10
        0x000007f0:    4625        %F      MOV      r5,r4
        0x000007f2:    cde0        ..      LDM      r5,{r5-r7}
        0x000007f4:    68e4        .h      LDR      r4,[r4,#0xc]
        0x000007f6:    9702        ..      STR      r7,[sp,#8]
        0x000007f8:    9601        ..      STR      r6,[sp,#4]
        0x000007fa:    9500        ..      STR      r5,[sp,#0]
        0x000007fc:    9403        ..      STR      r4,[sp,#0xc]
        0x000007fe:    0384        ..      LSLS     r4,r0,#14
        0x00000800:    0e24        $.      LSRS     r4,r4,#24
        0x00000802:    2c00        .,      CMP      r4,#0
        0x00000804:    d010        ..      BEQ      0x828 ; CLK_SetModuleClock + 84
        0x00000806:    0304        ..      LSLS     r4,r0,#12
        0x00000808:    0fa4        ..      LSRS     r4,r4,#30
        0x0000080a:    00a4        ..      LSLS     r4,r4,#2
        0x0000080c:    466d        mF      MOV      r5,sp
        0x0000080e:    592c        ,Y      LDR      r4,[r5,r4]
        0x00000810:    4d12        .M      LDR      r5,[pc,#72] ; [0x85c] = 0x40000220
        0x00000812:    1963        c.      ADDS     r3,r4,r5
        0x00000814:    0384        ..      LSLS     r4,r0,#14
        0x00000816:    0e25        %.      LSRS     r5,r4,#24
        0x00000818:    0584        ..      LSLS     r4,r0,#22
        0x0000081a:    0ee4        ..      LSRS     r4,r4,#27
        0x0000081c:    40a5        .@      LSLS     r5,r5,r4
        0x0000081e:    681c        .h      LDR      r4,[r3,#0]
        0x00000820:    43ac        .C      BICS     r4,r4,r5
        0x00000822:    9d0a        ..      LDR      r5,[sp,#0x28]
        0x00000824:    432c        ,C      ORRS     r4,r4,r5
        0x00000826:    601c        .`      STR      r4,[r3,#0]
        0x00000828:    0104        ..      LSLS     r4,r0,#4
        0x0000082a:    0f64        d.      LSRS     r4,r4,#29
        0x0000082c:    2c00        .,      CMP      r4,#0
        0x0000082e:    d010        ..      BEQ      0x852 ; CLK_SetModuleClock + 126
        0x00000830:    0084        ..      LSLS     r4,r0,#2
        0x00000832:    0fa4        ..      LSRS     r4,r4,#30
        0x00000834:    00a4        ..      LSLS     r4,r4,#2
        0x00000836:    ad04        ..      ADD      r5,sp,#0x10
        0x00000838:    592c        ,Y      LDR      r4,[r5,r4]
        0x0000083a:    4d08        .M      LDR      r5,[pc,#32] ; [0x85c] = 0x40000220
        0x0000083c:    3d10        .=      SUBS     r5,r5,#0x10
        0x0000083e:    1962        b.      ADDS     r2,r4,r5
        0x00000840:    0104        ..      LSLS     r4,r0,#4
        0x00000842:    0f65        e.      LSRS     r5,r4,#29
        0x00000844:    01c4        ..      LSLS     r4,r0,#7
        0x00000846:    0ee4        ..      LSRS     r4,r4,#27
        0x00000848:    40a5        .@      LSLS     r5,r5,r4
        0x0000084a:    6814        .h      LDR      r4,[r2,#0]
        0x0000084c:    43ac        .C      BICS     r4,r4,r5
        0x0000084e:    430c        .C      ORRS     r4,r4,r1
        0x00000850:    6014        .`      STR      r4,[r2,#0]
        0x00000852:    b00b        ..      ADD      sp,sp,#0x2c
        0x00000854:    bdf0        ..      POP      {r4-r7,pc}
    $d
        0x00000856:    0000        ..      DCW    0
        0x00000858:    000031ec    .1..    DCD    12780
        0x0000085c:    40000220     ..@    DCD    1073742368
    $t
    i.CLK_SysTickDelay
    CLK_SysTickDelay
        0x00000860:    4602        .F      MOV      r2,r0
        0x00000862:    4811        .H      LDR      r0,[pc,#68] ; [0x8a8] = 0x20000000
        0x00000864:    6800        .h      LDR      r0,[r0,#0]
        0x00000866:    0041        A.      LSLS     r1,r0,#1
        0x00000868:    4810        .H      LDR      r0,[pc,#64] ; [0x8ac] = 0x20000004
        0x0000086a:    6800        .h      LDR      r0,[r0,#0]
        0x0000086c:    4350        PC      MULS     r0,r2,r0
        0x0000086e:    4b10        .K      LDR      r3,[pc,#64] ; [0x8b0] = 0xe000e000
        0x00000870:    6158        Xa      STR      r0,[r3,#0x14]
        0x00000872:    2000        .       MOVS     r0,#0
        0x00000874:    6198        .a      STR      r0,[r3,#0x18]
        0x00000876:    2005        .       MOVS     r0,#5
        0x00000878:    6118        .a      STR      r0,[r3,#0x10]
        0x0000087a:    e003        ..      B        0x884 ; CLK_SysTickDelay + 36
        0x0000087c:    1e48        H.      SUBS     r0,r1,#1
        0x0000087e:    1e01        ..      SUBS     r1,r0,#0
        0x00000880:    d100        ..      BNE      0x884 ; CLK_SysTickDelay + 36
        0x00000882:    e006        ..      B        0x892 ; CLK_SysTickDelay + 50
        0x00000884:    480a        .H      LDR      r0,[pc,#40] ; [0x8b0] = 0xe000e000
        0x00000886:    6900        .i      LDR      r0,[r0,#0x10]
        0x00000888:    2301        .#      MOVS     r3,#1
        0x0000088a:    041b        ..      LSLS     r3,r3,#16
        0x0000088c:    4018        .@      ANDS     r0,r0,r3
        0x0000088e:    2800        .(      CMP      r0,#0
        0x00000890:    d0f4        ..      BEQ      0x87c ; CLK_SysTickDelay + 28
        0x00000892:    bf00        ..      NOP      
        0x00000894:    2000        .       MOVS     r0,#0
        0x00000896:    4b06        .K      LDR      r3,[pc,#24] ; [0x8b0] = 0xe000e000
        0x00000898:    6118        .a      STR      r0,[r3,#0x10]
        0x0000089a:    2900        .)      CMP      r1,#0
        0x0000089c:    d101        ..      BNE      0x8a2 ; CLK_SysTickDelay + 66
        0x0000089e:    1e40        @.      SUBS     r0,r0,#1
        0x000008a0:    4770        pG      BX       lr
        0x000008a2:    2000        .       MOVS     r0,#0
        0x000008a4:    e7fc        ..      B        0x8a0 ; CLK_SysTickDelay + 64
    $d
        0x000008a6:    0000        ..      DCW    0
        0x000008a8:    20000000    ...     DCD    536870912
        0x000008ac:    20000004    ...     DCD    536870916
        0x000008b0:    e000e000    ....    DCD    3758153728
    $t
    i.CLK_WaitClockReady
    CLK_WaitClockReady
        0x000008b4:    b510        ..      PUSH     {r4,lr}
        0x000008b6:    4601        .F      MOV      r1,r0
        0x000008b8:    4a0b        .J      LDR      r2,[pc,#44] ; [0x8e8] = 0x179ee0
        0x000008ba:    2001        .       MOVS     r0,#1
        0x000008bc:    2300        .#      MOVS     r3,#0
        0x000008be:    4c0b        .L      LDR      r4,[pc,#44] ; [0x8ec] = 0x20000018
        0x000008c0:    6023        #`      STR      r3,[r4,#0]
        0x000008c2:    e004        ..      B        0x8ce ; CLK_WaitClockReady + 26
        0x000008c4:    1e53        S.      SUBS     r3,r2,#1
        0x000008c6:    1e1a        ..      SUBS     r2,r3,#0
        0x000008c8:    d101        ..      BNE      0x8ce ; CLK_WaitClockReady + 26
        0x000008ca:    2000        .       MOVS     r0,#0
        0x000008cc:    e004        ..      B        0x8d8 ; CLK_WaitClockReady + 36
        0x000008ce:    4b08        .K      LDR      r3,[pc,#32] ; [0x8f0] = 0x40000240
        0x000008d0:    691b        .i      LDR      r3,[r3,#0x10]
        0x000008d2:    400b        .@      ANDS     r3,r3,r1
        0x000008d4:    428b        .B      CMP      r3,r1
        0x000008d6:    d1f5        ..      BNE      0x8c4 ; CLK_WaitClockReady + 16
        0x000008d8:    bf00        ..      NOP      
        0x000008da:    2a00        .*      CMP      r2,#0
        0x000008dc:    d102        ..      BNE      0x8e4 ; CLK_WaitClockReady + 48
        0x000008de:    1e53        S.      SUBS     r3,r2,#1
        0x000008e0:    4c02        .L      LDR      r4,[pc,#8] ; [0x8ec] = 0x20000018
        0x000008e2:    6023        #`      STR      r3,[r4,#0]
        0x000008e4:    bd10        ..      POP      {r4,pc}
    $d
        0x000008e6:    0000        ..      DCW    0
        0x000008e8:    00179ee0    ....    DCD    1548000
        0x000008ec:    20000018    ...     DCD    536870936
        0x000008f0:    40000240    @..@    DCD    1073742400
    $t
    i.CRC_Get
    CRC_Get
        0x000008f4:    b5f8        ..      PUSH     {r3-r7,lr}
        0x000008f6:    4605        .F      MOV      r5,r0
        0x000008f8:    460e        .F      MOV      r6,r1
        0x000008fa:    2400        .$      MOVS     r4,#0
        0x000008fc:    2700        .'      MOVS     r7,#0
        0x000008fe:    2300        .#      MOVS     r3,#0
        0x00000900:    225a        Z"      MOVS     r2,#0x5a
        0x00000902:    4619        .F      MOV      r1,r3
        0x00000904:    0750        P.      LSLS     r0,r2,#29
        0x00000906:    f000f837    ..7.    BL       CRC_Open ; 0x978
        0x0000090a:    bf00        ..      NOP      
        0x0000090c:    e004        ..      B        0x918 ; CRC_Get + 36
        0x0000090e:    5d28        (]      LDRB     r0,[r5,r4]
        0x00000910:    4905        .I      LDR      r1,[pc,#20] ; [0x928] = 0x40031000
        0x00000912:    6048        H`      STR      r0,[r1,#4]
        0x00000914:    1c60        `.      ADDS     r0,r4,#1
        0x00000916:    b284        ..      UXTH     r4,r0
        0x00000918:    42b4        .B      CMP      r4,r6
        0x0000091a:    dbf8        ..      BLT      0x90e ; CRC_Get + 26
        0x0000091c:    f000f806    ....    BL       CRC_GetChecksum ; 0x92c
        0x00000920:    4607        .F      MOV      r7,r0
        0x00000922:    b2f8        ..      UXTB     r0,r7
        0x00000924:    bdf8        ..      POP      {r3-r7,pc}
    $d
        0x00000926:    0000        ..      DCW    0
        0x00000928:    40031000    ...@    DCD    1073942528
    $t
    i.CRC_GetChecksum
    CRC_GetChecksum
        0x0000092c:    4911        .I      LDR      r1,[pc,#68] ; [0x974] = 0x40031000
        0x0000092e:    6809        .h      LDR      r1,[r1,#0]
        0x00000930:    0f89        ..      LSRS     r1,r1,#30
        0x00000932:    0789        ..      LSLS     r1,r1,#30
        0x00000934:    2201        ."      MOVS     r2,#1
        0x00000936:    07d2        ..      LSLS     r2,r2,#31
        0x00000938:    1889        ..      ADDS     r1,r1,r2
        0x0000093a:    2900        .)      CMP      r1,#0
        0x0000093c:    d00b        ..      BEQ      0x956 ; CRC_GetChecksum + 42
        0x0000093e:    1052        R.      ASRS     r2,r2,#1
        0x00000940:    1889        ..      ADDS     r1,r1,r2
        0x00000942:    2900        .)      CMP      r1,#0
        0x00000944:    d00b        ..      BEQ      0x95e ; CRC_GetChecksum + 50
        0x00000946:    1889        ..      ADDS     r1,r1,r2
        0x00000948:    2900        .)      CMP      r1,#0
        0x0000094a:    d003        ..      BEQ      0x954 ; CRC_GetChecksum + 40
        0x0000094c:    1889        ..      ADDS     r1,r1,r2
        0x0000094e:    2900        .)      CMP      r1,#0
        0x00000950:    d10c        ..      BNE      0x96c ; CRC_GetChecksum + 64
        0x00000952:    e007        ..      B        0x964 ; CRC_GetChecksum + 56
        0x00000954:    bf00        ..      NOP      
        0x00000956:    4907        .I      LDR      r1,[pc,#28] ; [0x974] = 0x40031000
        0x00000958:    68c9        .h      LDR      r1,[r1,#0xc]
        0x0000095a:    b288        ..      UXTH     r0,r1
        0x0000095c:    e008        ..      B        0x970 ; CRC_GetChecksum + 68
        0x0000095e:    4905        .I      LDR      r1,[pc,#20] ; [0x974] = 0x40031000
        0x00000960:    68c8        .h      LDR      r0,[r1,#0xc]
        0x00000962:    e005        ..      B        0x970 ; CRC_GetChecksum + 68
        0x00000964:    4903        .I      LDR      r1,[pc,#12] ; [0x974] = 0x40031000
        0x00000966:    68c9        .h      LDR      r1,[r1,#0xc]
        0x00000968:    b2c8        ..      UXTB     r0,r1
        0x0000096a:    e001        ..      B        0x970 ; CRC_GetChecksum + 68
        0x0000096c:    2000        .       MOVS     r0,#0
        0x0000096e:    bf00        ..      NOP      
        0x00000970:    bf00        ..      NOP      
        0x00000972:    4770        pG      BX       lr
    $d
        0x00000974:    40031000    ...@    DCD    1073942528
    $t
    i.CRC_Open
    CRC_Open
        0x00000978:    b530        0.      PUSH     {r4,r5,lr}
        0x0000097a:    4c1d        .L      LDR      r4,[pc,#116] ; [0x9f0] = 0x40031000
        0x0000097c:    60a2        .`      STR      r2,[r4,#8]
        0x0000097e:    04a4        ..      LSLS     r4,r4,#18
        0x00000980:    6824        $h      LDR      r4,[r4,#0]
        0x00000982:    250f        .%      MOVS     r5,#0xf
        0x00000984:    032d        -.      LSLS     r5,r5,#12
        0x00000986:    402c        ,@      ANDS     r4,r4,r5
        0x00000988:    0b24        $.      LSRS     r4,r4,#12
        0x0000098a:    2c01        .,      CMP      r4,#1
        0x0000098c:    d121        !.      BNE      0x9d2 ; CRC_Open + 90
        0x0000098e:    07e4        ..      LSLS     r4,r4,#31
        0x00000990:    1904        ..      ADDS     r4,r0,r4
        0x00000992:    2c00        .,      CMP      r4,#0
        0x00000994:    d014        ..      BEQ      0x9c0 ; CRC_Open + 72
        0x00000996:    04ad        ..      LSLS     r5,r5,#18
        0x00000998:    1964        d.      ADDS     r4,r4,r5
        0x0000099a:    2c00        .,      CMP      r4,#0
        0x0000099c:    d014        ..      BEQ      0x9c8 ; CRC_Open + 80
        0x0000099e:    1964        d.      ADDS     r4,r4,r5
        0x000009a0:    2c00        .,      CMP      r4,#0
        0x000009a2:    d003        ..      BEQ      0x9ac ; CRC_Open + 52
        0x000009a4:    1964        d.      ADDS     r4,r4,r5
        0x000009a6:    2c00        .,      CMP      r4,#0
        0x000009a8:    d112        ..      BNE      0x9d0 ; CRC_Open + 88
        0x000009aa:    e005        ..      B        0x9b8 ; CRC_Open + 64
        0x000009ac:    2001        .       MOVS     r0,#1
        0x000009ae:    07c0        ..      LSLS     r0,r0,#31
        0x000009b0:    4c10        .L      LDR      r4,[pc,#64] ; [0x9f4] = 0x1021
        0x000009b2:    4d0f        .M      LDR      r5,[pc,#60] ; [0x9f0] = 0x40031000
        0x000009b4:    612c        ,a      STR      r4,[r5,#0x10]
        0x000009b6:    e00b        ..      B        0x9d0 ; CRC_Open + 88
        0x000009b8:    2407        .$      MOVS     r4,#7
        0x000009ba:    4d0d        .M      LDR      r5,[pc,#52] ; [0x9f0] = 0x40031000
        0x000009bc:    612c        ,a      STR      r4,[r5,#0x10]
        0x000009be:    e007        ..      B        0x9d0 ; CRC_Open + 88
        0x000009c0:    4c0d        .L      LDR      r4,[pc,#52] ; [0x9f8] = 0x8005
        0x000009c2:    4d0b        .M      LDR      r5,[pc,#44] ; [0x9f0] = 0x40031000
        0x000009c4:    612c        ,a      STR      r4,[r5,#0x10]
        0x000009c6:    e003        ..      B        0x9d0 ; CRC_Open + 88
        0x000009c8:    4c0c        .L      LDR      r4,[pc,#48] ; [0x9fc] = 0x4c11db7
        0x000009ca:    4d09        .M      LDR      r5,[pc,#36] ; [0x9f0] = 0x40031000
        0x000009cc:    612c        ,a      STR      r4,[r5,#0x10]
        0x000009ce:    bf00        ..      NOP      
        0x000009d0:    bf00        ..      NOP      
        0x000009d2:    4604        .F      MOV      r4,r0
        0x000009d4:    430c        .C      ORRS     r4,r4,r1
        0x000009d6:    431c        .C      ORRS     r4,r4,r3
        0x000009d8:    2501        .%      MOVS     r5,#1
        0x000009da:    432c        ,C      ORRS     r4,r4,r5
        0x000009dc:    4d04        .M      LDR      r5,[pc,#16] ; [0x9f0] = 0x40031000
        0x000009de:    602c        ,`      STR      r4,[r5,#0]
        0x000009e0:    462c        ,F      MOV      r4,r5
        0x000009e2:    6824        $h      LDR      r4,[r4,#0]
        0x000009e4:    2502        .%      MOVS     r5,#2
        0x000009e6:    432c        ,C      ORRS     r4,r4,r5
        0x000009e8:    4d01        .M      LDR      r5,[pc,#4] ; [0x9f0] = 0x40031000
        0x000009ea:    602c        ,`      STR      r4,[r5,#0]
        0x000009ec:    bd30        0.      POP      {r4,r5,pc}
    $d
        0x000009ee:    0000        ..      DCW    0
        0x000009f0:    40031000    ...@    DCD    1073942528
        0x000009f4:    00001021    !...    DCD    4129
        0x000009f8:    00008005    ....    DCD    32773
        0x000009fc:    04c11db7    ....    DCD    79764919
    $t
    i.DAC01_IRQHandler
    DAC01_IRQHandler
        0x00000a00:    480f        .H      LDR      r0,[pc,#60] ; [0xa40] = 0x40047000
        0x00000a02:    6900        .i      LDR      r0,[r0,#0x10]
        0x00000a04:    07c0        ..      LSLS     r0,r0,#31
        0x00000a06:    0fc0        ..      LSRS     r0,r0,#31
        0x00000a08:    2800        .(      CMP      r0,#0
        0x00000a0a:    d017        ..      BEQ      0xa3c ; DAC01_IRQHandler + 60
        0x00000a0c:    480d        .H      LDR      r0,[pc,#52] ; [0xa44] = 0x20000038
        0x00000a0e:    6800        .h      LDR      r0,[r0,#0]
        0x00000a10:    21ff        .!      MOVS     r1,#0xff
        0x00000a12:    3101        .1      ADDS     r1,#1
        0x00000a14:    4288        .B      CMP      r0,r1
        0x00000a16:    d103        ..      BNE      0xa20 ; DAC01_IRQHandler + 32
        0x00000a18:    2000        .       MOVS     r0,#0
        0x00000a1a:    490a        .I      LDR      r1,[pc,#40] ; [0xa44] = 0x20000038
        0x00000a1c:    6008        .`      STR      r0,[r1,#0]
        0x00000a1e:    e00d        ..      B        0xa3c ; DAC01_IRQHandler + 60
        0x00000a20:    4808        .H      LDR      r0,[pc,#32] ; [0xa44] = 0x20000038
        0x00000a22:    6801        .h      LDR      r1,[r0,#0]
        0x00000a24:    6800        .h      LDR      r0,[r0,#0]
        0x00000a26:    1c40        @.      ADDS     r0,r0,#1
        0x00000a28:    4a06        .J      LDR      r2,[pc,#24] ; [0xa44] = 0x20000038
        0x00000a2a:    6010        .`      STR      r0,[r2,#0]
        0x00000a2c:    0048        H.      LSLS     r0,r1,#1
        0x00000a2e:    4906        .I      LDR      r1,[pc,#24] ; [0xa48] = 0x3244
        0x00000a30:    5a08        .Z      LDRH     r0,[r1,r0]
        0x00000a32:    4903        .I      LDR      r1,[pc,#12] ; [0xa40] = 0x40047000
        0x00000a34:    6088        .`      STR      r0,[r1,#8]
        0x00000a36:    2001        .       MOVS     r0,#1
        0x00000a38:    6048        H`      STR      r0,[r1,#4]
        0x00000a3a:    6108        .a      STR      r0,[r1,#0x10]
        0x00000a3c:    4770        pG      BX       lr
    $d
        0x00000a3e:    0000        ..      DCW    0
        0x00000a40:    40047000    .p.@    DCD    1074032640
        0x00000a44:    20000038    8..     DCD    536870968
        0x00000a48:    00003244    D2..    DCD    12868
    $t
    i.DAC_Init
    DAC_Init
        0x00000a4c:    b510        ..      PUSH     {r4,lr}
        0x00000a4e:    22ff        ."      MOVS     r2,#0xff
        0x00000a50:    3201        .2      ADDS     r2,#1
        0x00000a52:    4911        .I      LDR      r1,[pc,#68] ; [0xa98] = 0x3448
        0x00000a54:    a011        ..      ADR      r0,{pc}+0x48 ; 0xa9c
        0x00000a56:    f001fee7    ....    BL       __0printf$8 ; 0x2828
        0x00000a5a:    2210        ."      MOVS     r2,#0x10
        0x00000a5c:    2100        .!      MOVS     r1,#0
        0x00000a5e:    4811        .H      LDR      r0,[pc,#68] ; [0xaa4] = 0x40047000
        0x00000a60:    f000f826    ..&.    BL       DAC_Open ; 0xab0
        0x00000a64:    2101        .!      MOVS     r1,#1
        0x00000a66:    480f        .H      LDR      r0,[pc,#60] ; [0xaa4] = 0x40047000
        0x00000a68:    f000f830    ..0.    BL       DAC_SetDelayTime ; 0xacc
        0x00000a6c:    480e        .H      LDR      r0,[pc,#56] ; [0xaa8] = 0x20000038
        0x00000a6e:    6800        .h      LDR      r0,[r0,#0]
        0x00000a70:    0040        @.      LSLS     r0,r0,#1
        0x00000a72:    490e        .I      LDR      r1,[pc,#56] ; [0xaac] = 0x3244
        0x00000a74:    5a08        .Z      LDRH     r0,[r1,r0]
        0x00000a76:    490b        .I      LDR      r1,[pc,#44] ; [0xaa4] = 0x40047000
        0x00000a78:    6088        .`      STR      r0,[r1,#8]
        0x00000a7a:    2001        .       MOVS     r0,#1
        0x00000a7c:    6108        .a      STR      r0,[r1,#0x10]
        0x00000a7e:    4608        .F      MOV      r0,r1
        0x00000a80:    6800        .h      LDR      r0,[r0,#0]
        0x00000a82:    2102        .!      MOVS     r1,#2
        0x00000a84:    4308        .C      ORRS     r0,r0,r1
        0x00000a86:    4907        .I      LDR      r1,[pc,#28] ; [0xaa4] = 0x40047000
        0x00000a88:    6008        .`      STR      r0,[r1,#0]
        0x00000a8a:    2017        .       MOVS     r0,#0x17
        0x00000a8c:    f001ff0a    ....    BL       __NVIC_EnableIRQ ; 0x28a4
        0x00000a90:    2001        .       MOVS     r0,#1
        0x00000a92:    4904        .I      LDR      r1,[pc,#16] ; [0xaa4] = 0x40047000
        0x00000a94:    6048        H`      STR      r0,[r1,#4]
        0x00000a96:    bd10        ..      POP      {r4,pc}
    $d
        0x00000a98:    00003448    H4..    DCD    13384
        0x00000a9c:    253a7325    %s:%    DCD    624587557
        0x00000aa0:    000a0d64    d...    DCD    658788
        0x00000aa4:    40047000    .p.@    DCD    1074032640
        0x00000aa8:    20000038    8..     DCD    536870968
        0x00000aac:    00003244    D2..    DCD    12868
    $t
    i.DAC_Open
    DAC_Open
        0x00000ab0:    b510        ..      PUSH     {r4,lr}
        0x00000ab2:    6803        .h      LDR      r3,[r0,#0]
        0x00000ab4:    4c04        .L      LDR      r4,[pc,#16] ; [0xac8] = 0xffffcf0f
        0x00000ab6:    4023        #@      ANDS     r3,r3,r4
        0x00000ab8:    6003        .`      STR      r3,[r0,#0]
        0x00000aba:    6803        .h      LDR      r3,[r0,#0]
        0x00000abc:    2401        .$      MOVS     r4,#1
        0x00000abe:    4314        .C      ORRS     r4,r4,r2
        0x00000ac0:    4323        #C      ORRS     r3,r3,r4
        0x00000ac2:    6003        .`      STR      r3,[r0,#0]
        0x00000ac4:    bd10        ..      POP      {r4,pc}
    $d
        0x00000ac6:    0000        ..      DCW    0
        0x00000ac8:    ffffcf0f    ....    DCD    4294954767
    $t
    i.DAC_SetDelayTime
    DAC_SetDelayTime
        0x00000acc:    b570        p.      PUSH     {r4-r6,lr}
        0x00000ace:    4604        .F      MOV      r4,r0
        0x00000ad0:    460d        .F      MOV      r5,r1
        0x00000ad2:    f001fbc3    ....    BL       SystemCoreClockUpdate ; 0x225c
        0x00000ad6:    490b        .I      LDR      r1,[pc,#44] ; [0xb04] = 0x20000000
        0x00000ad8:    6809        .h      LDR      r1,[r1,#0]
        0x00000ada:    4369        iC      MULS     r1,r5,r1
        0x00000adc:    4608        .F      MOV      r0,r1
        0x00000ade:    490a        .I      LDR      r1,[pc,#40] ; [0xb08] = 0xf4240
        0x00000ae0:    f7fffb1a    ....    BL       __aeabi_uidiv ; 0x118
        0x00000ae4:    0480        ..      LSLS     r0,r0,#18
        0x00000ae6:    0c80        ..      LSRS     r0,r0,#18
        0x00000ae8:    6160        `a      STR      r0,[r4,#0x14]
        0x00000aea:    6961        ai      LDR      r1,[r4,#0x14]
        0x00000aec:    4a06        .J      LDR      r2,[pc,#24] ; [0xb08] = 0xf4240
        0x00000aee:    4351        QC      MULS     r1,r2,r1
        0x00000af0:    4608        .F      MOV      r0,r1
        0x00000af2:    4904        .I      LDR      r1,[pc,#16] ; [0xb04] = 0x20000000
        0x00000af4:    6809        .h      LDR      r1,[r1,#0]
        0x00000af6:    f7fffb0f    ....    BL       __aeabi_uidiv ; 0x118
        0x00000afa:    4606        .F      MOV      r6,r0
        0x00000afc:    f7fffb72    ..r.    BL       __aeabi_ui2f ; 0x1e4
        0x00000b00:    bd70        p.      POP      {r4-r6,pc}
    $d
        0x00000b02:    0000        ..      DCW    0
        0x00000b04:    20000000    ...     DCD    536870912
        0x00000b08:    000f4240    @B..    DCD    1000000
    $t
    i.DumpStack
    DumpStack
        0x00000b0c:    4770        pG      BX       lr
        0x00000b0e:    0000        ..      MOVS     r0,r0
    i.FMC_Close
    FMC_Close
        0x00000b10:    4803        .H      LDR      r0,[pc,#12] ; [0xb20] = 0x4000c000
        0x00000b12:    6800        .h      LDR      r0,[r0,#0]
        0x00000b14:    0840        @.      LSRS     r0,r0,#1
        0x00000b16:    0040        @.      LSLS     r0,r0,#1
        0x00000b18:    4901        .I      LDR      r1,[pc,#4] ; [0xb20] = 0x4000c000
        0x00000b1a:    6008        .`      STR      r0,[r1,#0]
        0x00000b1c:    4770        pG      BX       lr
    $d
        0x00000b1e:    0000        ..      DCW    0
        0x00000b20:    4000c000    ...@    DCD    1073790976
    $t
    i.FMC_Open
    FMC_Open
        0x00000b24:    4803        .H      LDR      r0,[pc,#12] ; [0xb34] = 0x4000c000
        0x00000b26:    6800        .h      LDR      r0,[r0,#0]
        0x00000b28:    2101        .!      MOVS     r1,#1
        0x00000b2a:    4308        .C      ORRS     r0,r0,r1
        0x00000b2c:    4901        .I      LDR      r1,[pc,#4] ; [0xb34] = 0x4000c000
        0x00000b2e:    6008        .`      STR      r0,[r1,#0]
        0x00000b30:    4770        pG      BX       lr
    $d
        0x00000b32:    0000        ..      DCW    0
        0x00000b34:    4000c000    ...@    DCD    1073790976
    $t
    i.GPIO_Init
    GPIO_Init
        0x00000b38:    b510        ..      PUSH     {r4,lr}
        0x00000b3a:    4806        .H      LDR      r0,[pc,#24] ; [0xb54] = 0x40000040
        0x00000b3c:    6800        .h      LDR      r0,[r0,#0]
        0x00000b3e:    21f0        .!      MOVS     r1,#0xf0
        0x00000b40:    4388        .C      BICS     r0,r0,r1
        0x00000b42:    4904        .I      LDR      r1,[pc,#16] ; [0xb54] = 0x40000040
        0x00000b44:    6008        .`      STR      r0,[r1,#0]
        0x00000b46:    2201        ."      MOVS     r2,#1
        0x00000b48:    2102        .!      MOVS     r1,#2
        0x00000b4a:    4803        .H      LDR      r0,[pc,#12] ; [0xb58] = 0x40004080
        0x00000b4c:    f000f806    ....    BL       GPIO_SetMode ; 0xb5c
        0x00000b50:    bd10        ..      POP      {r4,pc}
    $d
        0x00000b52:    0000        ..      DCW    0
        0x00000b54:    40000040    @..@    DCD    1073741888
        0x00000b58:    40004080    .@.@    DCD    1073758336
    $t
    i.GPIO_SetMode
    GPIO_SetMode
        0x00000b5c:    b570        p.      PUSH     {r4-r6,lr}
        0x00000b5e:    4603        .F      MOV      r3,r0
        0x00000b60:    2000        .       MOVS     r0,#0
        0x00000b62:    e00f        ..      B        0xb84 ; GPIO_SetMode + 40
        0x00000b64:    2401        .$      MOVS     r4,#1
        0x00000b66:    4084        .@      LSLS     r4,r4,r0
        0x00000b68:    400c        .@      ANDS     r4,r4,r1
        0x00000b6a:    2c00        .,      CMP      r4,#0
        0x00000b6c:    d009        ..      BEQ      0xb82 ; GPIO_SetMode + 38
        0x00000b6e:    681c        .h      LDR      r4,[r3,#0]
        0x00000b70:    0046        F.      LSLS     r6,r0,#1
        0x00000b72:    2503        .%      MOVS     r5,#3
        0x00000b74:    40b5        .@      LSLS     r5,r5,r6
        0x00000b76:    43ac        .C      BICS     r4,r4,r5
        0x00000b78:    0046        F.      LSLS     r6,r0,#1
        0x00000b7a:    4615        .F      MOV      r5,r2
        0x00000b7c:    40b5        .@      LSLS     r5,r5,r6
        0x00000b7e:    432c        ,C      ORRS     r4,r4,r5
        0x00000b80:    601c        .`      STR      r4,[r3,#0]
        0x00000b82:    1c40        @.      ADDS     r0,r0,#1
        0x00000b84:    2810        .(      CMP      r0,#0x10
        0x00000b86:    d3ed        ..      BCC      0xb64 ; GPIO_SetMode + 8
        0x00000b88:    bd70        p.      POP      {r4-r6,pc}
        0x00000b8a:    0000        ..      MOVS     r0,r0
    i.GetAVDDCodeByADC
    GetAVDDCodeByADC
        0x00000b8c:    b5f8        ..      PUSH     {r3-r7,lr}
        0x00000b8e:    2000        .       MOVS     r0,#0
        0x00000b90:    9000        ..      STR      r0,[sp,#0]
        0x00000b92:    2500        .%      MOVS     r5,#0
        0x00000b94:    2400        .$      MOVS     r4,#0
        0x00000b96:    2600        .&      MOVS     r6,#0
        0x00000b98:    4832        2H      LDR      r0,[pc,#200] ; [0xc64] = 0x400001c
        0x00000b9a:    f001faad    ....    BL       SYS_ResetModule ; 0x20f8
        0x00000b9e:    4832        2H      LDR      r0,[pc,#200] ; [0xc68] = 0x40043080
        0x00000ba0:    6800        .h      LDR      r0,[r0,#0]
        0x00000ba2:    2101        .!      MOVS     r1,#1
        0x00000ba4:    4308        .C      ORRS     r0,r0,r1
        0x00000ba6:    4930        0I      LDR      r1,[pc,#192] ; [0xc68] = 0x40043080
        0x00000ba8:    6008        .`      STR      r0,[r1,#0]
        0x00000baa:    bf00        ..      NOP      
        0x00000bac:    482e        .H      LDR      r0,[pc,#184] ; [0xc68] = 0x40043080
        0x00000bae:    6900        .i      LDR      r0,[r0,#0x10]
        0x00000bb0:    2101        .!      MOVS     r1,#1
        0x00000bb2:    0609        ..      LSLS     r1,r1,#24
        0x00000bb4:    4008        .@      ANDS     r0,r0,r1
        0x00000bb6:    2800        .(      CMP      r0,#0
        0x00000bb8:    d0f8        ..      BEQ      0xbac ; GetAVDDCodeByADC + 32
        0x00000bba:    014b        K.      LSLS     r3,r1,#5
        0x00000bbc:    2200        ."      MOVS     r2,#0
        0x00000bbe:    4611        .F      MOV      r1,r2
        0x00000bc0:    4829        )H      LDR      r0,[pc,#164] ; [0xc68] = 0x40043080
        0x00000bc2:    3880        .8      SUBS     r0,r0,#0x80
        0x00000bc4:    f7fffc6e    ..n.    BL       ADC_Open ; 0x4a4
        0x00000bc8:    2247        G"      MOVS     r2,#0x47
        0x00000bca:    2100        .!      MOVS     r1,#0
        0x00000bcc:    4826        &H      LDR      r0,[pc,#152] ; [0xc68] = 0x40043080
        0x00000bce:    3880        .8      SUBS     r0,r0,#0x80
        0x00000bd0:    f7fffcd8    ....    BL       ADC_SetExtendSampleTime ; 0x584
        0x00000bd4:    2001        .       MOVS     r0,#1
        0x00000bd6:    4924        $I      LDR      r1,[pc,#144] ; [0xc68] = 0x40043080
        0x00000bd8:    6108        .a      STR      r0,[r1,#0x10]
        0x00000bda:    2400        .$      MOVS     r4,#0
        0x00000bdc:    e03b        ;.      B        0xc56 ; GetAVDDCodeByADC + 202
        0x00000bde:    2164        d!      MOVS     r1,#0x64
        0x00000be0:    4a22        "J      LDR      r2,[pc,#136] ; [0xc6c] = 0x20000000
        0x00000be2:    6812        .h      LDR      r2,[r2,#0]
        0x00000be4:    0050        P.      LSLS     r0,r2,#1
        0x00000be6:    4a22        "J      LDR      r2,[pc,#136] ; [0xc70] = 0x20000004
        0x00000be8:    6812        .h      LDR      r2,[r2,#0]
        0x00000bea:    434a        JC      MULS     r2,r1,r2
        0x00000bec:    4b21        !K      LDR      r3,[pc,#132] ; [0xc74] = 0xe000e000
        0x00000bee:    615a        Za      STR      r2,[r3,#0x14]
        0x00000bf0:    2200        ."      MOVS     r2,#0
        0x00000bf2:    619a        .a      STR      r2,[r3,#0x18]
        0x00000bf4:    2205        ."      MOVS     r2,#5
        0x00000bf6:    611a        .a      STR      r2,[r3,#0x10]
        0x00000bf8:    e003        ..      B        0xc02 ; GetAVDDCodeByADC + 118
        0x00000bfa:    1e42        B.      SUBS     r2,r0,#1
        0x00000bfc:    1e10        ..      SUBS     r0,r2,#0
        0x00000bfe:    d100        ..      BNE      0xc02 ; GetAVDDCodeByADC + 118
        0x00000c00:    e006        ..      B        0xc10 ; GetAVDDCodeByADC + 132
        0x00000c02:    4a1c        .J      LDR      r2,[pc,#112] ; [0xc74] = 0xe000e000
        0x00000c04:    6912        .i      LDR      r2,[r2,#0x10]
        0x00000c06:    2301        .#      MOVS     r3,#1
        0x00000c08:    041b        ..      LSLS     r3,r3,#16
        0x00000c0a:    401a        .@      ANDS     r2,r2,r3
        0x00000c0c:    2a00        .*      CMP      r2,#0
        0x00000c0e:    d0f4        ..      BEQ      0xbfa ; GetAVDDCodeByADC + 110
        0x00000c10:    bf00        ..      NOP      
        0x00000c12:    2200        ."      MOVS     r2,#0
        0x00000c14:    4b17        .K      LDR      r3,[pc,#92] ; [0xc74] = 0xe000e000
        0x00000c16:    611a        .a      STR      r2,[r3,#0x10]
        0x00000c18:    2800        .(      CMP      r0,#0
        0x00000c1a:    d100        ..      BNE      0xc1e ; GetAVDDCodeByADC + 146
        0x00000c1c:    e000        ..      B        0xc20 ; GetAVDDCodeByADC + 148
        0x00000c1e:    bf00        ..      NOP      
        0x00000c20:    4811        .H      LDR      r0,[pc,#68] ; [0xc68] = 0x40043080
        0x00000c22:    6800        .h      LDR      r0,[r0,#0]
        0x00000c24:    2101        .!      MOVS     r1,#1
        0x00000c26:    02c9        ..      LSLS     r1,r1,#11
        0x00000c28:    4308        .C      ORRS     r0,r0,r1
        0x00000c2a:    490f        .I      LDR      r1,[pc,#60] ; [0xc68] = 0x40043080
        0x00000c2c:    6008        .`      STR      r0,[r1,#0]
        0x00000c2e:    2500        .%      MOVS     r5,#0
        0x00000c30:    bf00        ..      NOP      
        0x00000c32:    480d        .H      LDR      r0,[pc,#52] ; [0xc68] = 0x40043080
        0x00000c34:    6900        .i      LDR      r0,[r0,#0x10]
        0x00000c36:    07c0        ..      LSLS     r0,r0,#31
        0x00000c38:    0fc0        ..      LSRS     r0,r0,#31
        0x00000c3a:    2800        .(      CMP      r0,#0
        0x00000c3c:    d0f9        ..      BEQ      0xc32 ; GetAVDDCodeByADC + 166
        0x00000c3e:    2001        .       MOVS     r0,#1
        0x00000c40:    4909        .I      LDR      r1,[pc,#36] ; [0xc68] = 0x40043080
        0x00000c42:    6108        .a      STR      r0,[r1,#0x10]
        0x00000c44:    4808        .H      LDR      r0,[pc,#32] ; [0xc68] = 0x40043080
        0x00000c46:    3840        @8      SUBS     r0,r0,#0x40
        0x00000c48:    6b40        @k      LDR      r0,[r0,#0x34]
        0x00000c4a:    b285        ..      UXTH     r5,r0
        0x00000c4c:    9800        ..      LDR      r0,[sp,#0]
        0x00000c4e:    1940        @.      ADDS     r0,r0,r5
        0x00000c50:    9000        ..      STR      r0,[sp,#0]
        0x00000c52:    1c60        `.      ADDS     r0,r4,#1
        0x00000c54:    b284        ..      UXTH     r4,r0
        0x00000c56:    2c08        .,      CMP      r4,#8
        0x00000c58:    dbc1        ..      BLT      0xbde ; GetAVDDCodeByADC + 82
        0x00000c5a:    9800        ..      LDR      r0,[sp,#0]
        0x00000c5c:    0340        @.      LSLS     r0,r0,#13
        0x00000c5e:    0c06        ..      LSRS     r6,r0,#16
        0x00000c60:    4630        0F      MOV      r0,r6
        0x00000c62:    bdf8        ..      POP      {r3-r7,pc}
    $d
        0x00000c64:    0400001c    ....    DCD    67108892
        0x00000c68:    40043080    .0.@    DCD    1074016384
        0x00000c6c:    20000000    ...     DCD    536870912
        0x00000c70:    20000004    ...     DCD    536870916
        0x00000c74:    e000e000    ....    DCD    3758153728
    $t
    i.GetAVDDVoltage
    GetAVDDVoltage
        0x00000c78:    b570        p.      PUSH     {r4-r6,lr}
        0x00000c7a:    bf00        ..      NOP      
        0x00000c7c:    f7ffff86    ....    BL       GetAVDDCodeByADC ; 0xb8c
        0x00000c80:    4606        .F      MOV      r6,r0
        0x00000c82:    f002f9cd    ....    BL       getBuiltInBandGap ; 0x3020
        0x00000c86:    4605        .F      MOV      r5,r0
        0x00000c88:    2103        .!      MOVS     r1,#3
        0x00000c8a:    0289        ..      LSLS     r1,r1,#10
        0x00000c8c:    4369        iC      MULS     r1,r5,r1
        0x00000c8e:    4608        .F      MOV      r0,r1
        0x00000c90:    4631        1F      MOV      r1,r6
        0x00000c92:    f7fffa41    ..A.    BL       __aeabi_uidiv ; 0x118
        0x00000c96:    4604        .F      MOV      r4,r0
        0x00000c98:    4620         F      MOV      r0,r4
        0x00000c9a:    bd70        p.      POP      {r4-r6,pc}
    i.I2C0_IRQHandler
    I2C0_IRQHandler
        0x00000c9c:    b510        ..      PUSH     {r4,lr}
        0x00000c9e:    480d        .H      LDR      r0,[pc,#52] ; [0xcd4] = 0x40080000
        0x00000ca0:    68c4        .h      LDR      r4,[r0,#0xc]
        0x00000ca2:    6940        @i      LDR      r0,[r0,#0x14]
        0x00000ca4:    07c0        ..      LSLS     r0,r0,#31
        0x00000ca6:    0fc0        ..      LSRS     r0,r0,#31
        0x00000ca8:    2101        .!      MOVS     r1,#1
        0x00000caa:    4048        H@      EORS     r0,r0,r1
        0x00000cac:    4048        H@      EORS     r0,r0,r1
        0x00000cae:    2800        .(      CMP      r0,#0
        0x00000cb0:    d006        ..      BEQ      0xcc0 ; I2C0_IRQHandler + 36
        0x00000cb2:    4808        .H      LDR      r0,[pc,#32] ; [0xcd4] = 0x40080000
        0x00000cb4:    f000f848    ..H.    BL       I2C_ClearTimeoutFlag ; 0xd48
        0x00000cb8:    4806        .H      LDR      r0,[pc,#24] ; [0xcd4] = 0x40080000
        0x00000cba:    f000f878    ..x.    BL       I2C_DisableTimeout ; 0xdae
        0x00000cbe:    e007        ..      B        0xcd0 ; I2C0_IRQHandler + 52
        0x00000cc0:    4805        .H      LDR      r0,[pc,#20] ; [0xcd8] = 0x20000068
        0x00000cc2:    6800        .h      LDR      r0,[r0,#0]
        0x00000cc4:    2800        .(      CMP      r0,#0
        0x00000cc6:    d003        ..      BEQ      0xcd0 ; I2C0_IRQHandler + 52
        0x00000cc8:    4620         F      MOV      r0,r4
        0x00000cca:    4903        .I      LDR      r1,[pc,#12] ; [0xcd8] = 0x20000068
        0x00000ccc:    6809        .h      LDR      r1,[r1,#0]
        0x00000cce:    4788        .G      BLX      r1
        0x00000cd0:    bd10        ..      POP      {r4,pc}
    $d
        0x00000cd2:    0000        ..      DCW    0
        0x00000cd4:    40080000    ...@    DCD    1074266112
        0x00000cd8:    20000068    h..     DCD    536871016
    $t
    i.I2C1_IRQHandler
    I2C1_IRQHandler
        0x00000cdc:    b510        ..      PUSH     {r4,lr}
        0x00000cde:    4816        .H      LDR      r0,[pc,#88] ; [0xd38] = 0x40081000
        0x00000ce0:    68c4        .h      LDR      r4,[r0,#0xc]
        0x00000ce2:    6940        @i      LDR      r0,[r0,#0x14]
        0x00000ce4:    07c0        ..      LSLS     r0,r0,#31
        0x00000ce6:    0fc0        ..      LSRS     r0,r0,#31
        0x00000ce8:    2101        .!      MOVS     r1,#1
        0x00000cea:    4048        H@      EORS     r0,r0,r1
        0x00000cec:    4048        H@      EORS     r0,r0,r1
        0x00000cee:    2800        .(      CMP      r0,#0
        0x00000cf0:    d018        ..      BEQ      0xd24 ; I2C1_IRQHandler + 72
        0x00000cf2:    4811        .H      LDR      r0,[pc,#68] ; [0xd38] = 0x40081000
        0x00000cf4:    f000f828    ..(.    BL       I2C_ClearTimeoutFlag ; 0xd48
        0x00000cf8:    2001        .       MOVS     r0,#1
        0x00000cfa:    4910        .I      LDR      r1,[pc,#64] ; [0xd3c] = 0x20000044
        0x00000cfc:    7008        .p      STRB     r0,[r1,#0]
        0x00000cfe:    480e        .H      LDR      r0,[pc,#56] ; [0xd38] = 0x40081000
        0x00000d00:    f000f828    ..(.    BL       I2C_Close ; 0xd54
        0x00000d04:    2001        .       MOVS     r0,#1
        0x00000d06:    0780        ..      LSLS     r0,r0,#30
        0x00000d08:    6b00        .k      LDR      r0,[r0,#0x30]
        0x00000d0a:    21ff        .!      MOVS     r1,#0xff
        0x00000d0c:    0209        ..      LSLS     r1,r1,#8
        0x00000d0e:    4388        .C      BICS     r0,r0,r1
        0x00000d10:    2199        .!      MOVS     r1,#0x99
        0x00000d12:    0209        ..      LSLS     r1,r1,#8
        0x00000d14:    1840        @.      ADDS     r0,r0,r1
        0x00000d16:    0589        ..      LSLS     r1,r1,#22
        0x00000d18:    6308        .c      STR      r0,[r1,#0x30]
        0x00000d1a:    4909        .I      LDR      r1,[pc,#36] ; [0xd40] = 0x186a0
        0x00000d1c:    4806        .H      LDR      r0,[pc,#24] ; [0xd38] = 0x40081000
        0x00000d1e:    f000f865    ..e.    BL       I2C_Open ; 0xdec
        0x00000d22:    e007        ..      B        0xd34 ; I2C1_IRQHandler + 88
        0x00000d24:    4807        .H      LDR      r0,[pc,#28] ; [0xd44] = 0x20000050
        0x00000d26:    6800        .h      LDR      r0,[r0,#0]
        0x00000d28:    2800        .(      CMP      r0,#0
        0x00000d2a:    d003        ..      BEQ      0xd34 ; I2C1_IRQHandler + 88
        0x00000d2c:    4620         F      MOV      r0,r4
        0x00000d2e:    4905        .I      LDR      r1,[pc,#20] ; [0xd44] = 0x20000050
        0x00000d30:    6809        .h      LDR      r1,[r1,#0]
        0x00000d32:    4788        .G      BLX      r1
        0x00000d34:    bd10        ..      POP      {r4,pc}
    $d
        0x00000d36:    0000        ..      DCW    0
        0x00000d38:    40081000    ...@    DCD    1074270208
        0x00000d3c:    20000044    D..     DCD    536870980
        0x00000d40:    000186a0    ....    DCD    100000
        0x00000d44:    20000050    P..     DCD    536870992
    $t
    i.I2C_ClearTimeoutFlag
    I2C_ClearTimeoutFlag
        0x00000d48:    6941        Ai      LDR      r1,[r0,#0x14]
        0x00000d4a:    2201        ."      MOVS     r2,#1
        0x00000d4c:    4311        .C      ORRS     r1,r1,r2
        0x00000d4e:    6141        Aa      STR      r1,[r0,#0x14]
        0x00000d50:    4770        pG      BX       lr
        0x00000d52:    0000        ..      MOVS     r0,r0
    i.I2C_Close
    I2C_Close
        0x00000d54:    4911        .I      LDR      r1,[pc,#68] ; [0xd9c] = 0x40080000
        0x00000d56:    4288        .B      CMP      r0,r1
        0x00000d58:    d10c        ..      BNE      0xd74 ; I2C_Close + 32
        0x00000d5a:    02c1        ..      LSLS     r1,r0,#11
        0x00000d5c:    68c9        .h      LDR      r1,[r1,#0xc]
        0x00000d5e:    1582        ..      ASRS     r2,r0,#22
        0x00000d60:    4311        .C      ORRS     r1,r1,r2
        0x00000d62:    02c2        ..      LSLS     r2,r0,#11
        0x00000d64:    60d1        .`      STR      r1,[r2,#0xc]
        0x00000d66:    02c1        ..      LSLS     r1,r0,#11
        0x00000d68:    68c9        .h      LDR      r1,[r1,#0xc]
        0x00000d6a:    1582        ..      ASRS     r2,r0,#22
        0x00000d6c:    4391        .C      BICS     r1,r1,r2
        0x00000d6e:    02c2        ..      LSLS     r2,r0,#11
        0x00000d70:    60d1        .`      STR      r1,[r2,#0xc]
        0x00000d72:    e00e        ..      B        0xd92 ; I2C_Close + 62
        0x00000d74:    490a        .I      LDR      r1,[pc,#40] ; [0xda0] = 0x40081000
        0x00000d76:    4288        .B      CMP      r0,r1
        0x00000d78:    d10b        ..      BNE      0xd92 ; I2C_Close + 62
        0x00000d7a:    0481        ..      LSLS     r1,r0,#18
        0x00000d7c:    68c9        .h      LDR      r1,[r1,#0xc]
        0x00000d7e:    1542        B.      ASRS     r2,r0,#21
        0x00000d80:    4311        .C      ORRS     r1,r1,r2
        0x00000d82:    0482        ..      LSLS     r2,r0,#18
        0x00000d84:    60d1        .`      STR      r1,[r2,#0xc]
        0x00000d86:    0481        ..      LSLS     r1,r0,#18
        0x00000d88:    68c9        .h      LDR      r1,[r1,#0xc]
        0x00000d8a:    1542        B.      ASRS     r2,r0,#21
        0x00000d8c:    4391        .C      BICS     r1,r1,r2
        0x00000d8e:    0482        ..      LSLS     r2,r0,#18
        0x00000d90:    60d1        .`      STR      r1,[r2,#0xc]
        0x00000d92:    6801        .h      LDR      r1,[r0,#0]
        0x00000d94:    2240        @"      MOVS     r2,#0x40
        0x00000d96:    4391        .C      BICS     r1,r1,r2
        0x00000d98:    6001        .`      STR      r1,[r0,#0]
        0x00000d9a:    4770        pG      BX       lr
    $d
        0x00000d9c:    40080000    ...@    DCD    1074266112
        0x00000da0:    40081000    ...@    DCD    1074270208
    $t
    i.I2C_DisableInt
    I2C_DisableInt
        0x00000da4:    6801        .h      LDR      r1,[r0,#0]
        0x00000da6:    2280        ."      MOVS     r2,#0x80
        0x00000da8:    4391        .C      BICS     r1,r1,r2
        0x00000daa:    6001        .`      STR      r1,[r0,#0]
        0x00000dac:    4770        pG      BX       lr
    i.I2C_DisableTimeout
    I2C_DisableTimeout
        0x00000dae:    6941        Ai      LDR      r1,[r0,#0x14]
        0x00000db0:    2204        ."      MOVS     r2,#4
        0x00000db2:    4391        .C      BICS     r1,r1,r2
        0x00000db4:    6141        Aa      STR      r1,[r0,#0x14]
        0x00000db6:    4770        pG      BX       lr
    i.I2C_EnableInt
    I2C_EnableInt
        0x00000db8:    6801        .h      LDR      r1,[r0,#0]
        0x00000dba:    2280        ."      MOVS     r2,#0x80
        0x00000dbc:    4311        .C      ORRS     r1,r1,r2
        0x00000dbe:    6001        .`      STR      r1,[r0,#0]
        0x00000dc0:    4770        pG      BX       lr
    i.I2C_EnableTimeout
    I2C_EnableTimeout
        0x00000dc2:    2900        .)      CMP      r1,#0
        0x00000dc4:    d004        ..      BEQ      0xdd0 ; I2C_EnableTimeout + 14
        0x00000dc6:    6942        Bi      LDR      r2,[r0,#0x14]
        0x00000dc8:    2302        .#      MOVS     r3,#2
        0x00000dca:    431a        .C      ORRS     r2,r2,r3
        0x00000dcc:    6142        Ba      STR      r2,[r0,#0x14]
        0x00000dce:    e003        ..      B        0xdd8 ; I2C_EnableTimeout + 22
        0x00000dd0:    6942        Bi      LDR      r2,[r0,#0x14]
        0x00000dd2:    2302        .#      MOVS     r3,#2
        0x00000dd4:    439a        .C      BICS     r2,r2,r3
        0x00000dd6:    6142        Ba      STR      r2,[r0,#0x14]
        0x00000dd8:    6942        Bi      LDR      r2,[r0,#0x14]
        0x00000dda:    2304        .#      MOVS     r3,#4
        0x00000ddc:    431a        .C      ORRS     r2,r2,r3
        0x00000dde:    6142        Ba      STR      r2,[r0,#0x14]
        0x00000de0:    4770        pG      BX       lr
    i.I2C_GetData
    I2C_GetData
        0x00000de2:    4601        .F      MOV      r1,r0
        0x00000de4:    6888        .h      LDR      r0,[r1,#8]
        0x00000de6:    b2c0        ..      UXTB     r0,r0
        0x00000de8:    4770        pG      BX       lr
        0x00000dea:    0000        ..      MOVS     r0,r0
    i.I2C_Open
    I2C_Open
        0x00000dec:    b5f8        ..      PUSH     {r3-r7,lr}
        0x00000dee:    4604        .F      MOV      r4,r0
        0x00000df0:    460e        .F      MOV      r6,r1
        0x00000df2:    2001        .       MOVS     r0,#1
        0x00000df4:    0780        ..      LSLS     r0,r0,#30
        0x00000df6:    6800        .h      LDR      r0,[r0,#0]
        0x00000df8:    210f        .!      MOVS     r1,#0xf
        0x00000dfa:    0309        ..      LSLS     r1,r1,#12
        0x00000dfc:    4008        .@      ANDS     r0,r0,r1
        0x00000dfe:    0b00        ..      LSRS     r0,r0,#12
        0x00000e00:    2809        .(      CMP      r0,#9
        0x00000e02:    d103        ..      BNE      0xe0c ; I2C_Open + 32
        0x00000e04:    4812        .H      LDR      r0,[pc,#72] ; [0xe50] = 0x61a80
        0x00000e06:    4286        .B      CMP      r6,r0
        0x00000e08:    d900        ..      BLS      0xe0c ; I2C_Open + 32
        0x00000e0a:    4606        .F      MOV      r6,r0
        0x00000e0c:    4811        .H      LDR      r0,[pc,#68] ; [0xe54] = 0x40081000
        0x00000e0e:    4284        .B      CMP      r4,r0
        0x00000e10:    d103        ..      BNE      0xe1a ; I2C_Open + 46
        0x00000e12:    f7fffc61    ..a.    BL       CLK_GetPCLK1Freq ; 0x6d8
        0x00000e16:    4605        .F      MOV      r5,r0
        0x00000e18:    e002        ..      B        0xe20 ; I2C_Open + 52
        0x00000e1a:    f7fffc4d    ..M.    BL       CLK_GetPCLK0Freq ; 0x6b8
        0x00000e1e:    4605        .F      MOV      r5,r0
        0x00000e20:    00b1        ..      LSLS     r1,r6,#2
        0x00000e22:    220a        ."      MOVS     r2,#0xa
        0x00000e24:    436a        jC      MULS     r2,r5,r2
        0x00000e26:    4610        .F      MOV      r0,r2
        0x00000e28:    f7fff976    ..v.    BL       __aeabi_uidiv ; 0x118
        0x00000e2c:    1d40        @.      ADDS     r0,r0,#5
        0x00000e2e:    210a        .!      MOVS     r1,#0xa
        0x00000e30:    9000        ..      STR      r0,[sp,#0]
        0x00000e32:    f7fff971    ..q.    BL       __aeabi_uidiv ; 0x118
        0x00000e36:    1e47        G.      SUBS     r7,r0,#1
        0x00000e38:    6127        'a      STR      r7,[r4,#0x10]
        0x00000e3a:    6820         h      LDR      r0,[r4,#0]
        0x00000e3c:    2140        @!      MOVS     r1,#0x40
        0x00000e3e:    4308        .C      ORRS     r0,r0,r1
        0x00000e40:    6020         `      STR      r0,[r4,#0]
        0x00000e42:    1c78        x.      ADDS     r0,r7,#1
        0x00000e44:    0081        ..      LSLS     r1,r0,#2
        0x00000e46:    4628        (F      MOV      r0,r5
        0x00000e48:    f7fff966    ..f.    BL       __aeabi_uidiv ; 0x118
        0x00000e4c:    bdf8        ..      POP      {r3-r7,pc}
    $d
        0x00000e4e:    0000        ..      DCW    0
        0x00000e50:    00061a80    ....    DCD    400000
        0x00000e54:    40081000    ...@    DCD    1074270208
    $t
    i.I2C_SetSlaveAddr
    I2C_SetSlaveAddr
        0x00000e58:    b510        ..      PUSH     {r4,lr}
        0x00000e5a:    2900        .)      CMP      r1,#0
        0x00000e5c:    d013        ..      BEQ      0xe86 ; I2C_SetSlaveAddr + 46
        0x00000e5e:    2901        .)      CMP      r1,#1
        0x00000e60:    d004        ..      BEQ      0xe6c ; I2C_SetSlaveAddr + 20
        0x00000e62:    2902        .)      CMP      r1,#2
        0x00000e64:    d006        ..      BEQ      0xe74 ; I2C_SetSlaveAddr + 28
        0x00000e66:    2903        .)      CMP      r1,#3
        0x00000e68:    d10c        ..      BNE      0xe84 ; I2C_SetSlaveAddr + 44
        0x00000e6a:    e007        ..      B        0xe7c ; I2C_SetSlaveAddr + 36
        0x00000e6c:    0054        T.      LSLS     r4,r2,#1
        0x00000e6e:    431c        .C      ORRS     r4,r4,r3
        0x00000e70:    6184        .a      STR      r4,[r0,#0x18]
        0x00000e72:    e00c        ..      B        0xe8e ; I2C_SetSlaveAddr + 54
        0x00000e74:    0054        T.      LSLS     r4,r2,#1
        0x00000e76:    431c        .C      ORRS     r4,r4,r3
        0x00000e78:    61c4        .a      STR      r4,[r0,#0x1c]
        0x00000e7a:    e008        ..      B        0xe8e ; I2C_SetSlaveAddr + 54
        0x00000e7c:    0054        T.      LSLS     r4,r2,#1
        0x00000e7e:    431c        .C      ORRS     r4,r4,r3
        0x00000e80:    6204        .b      STR      r4,[r0,#0x20]
        0x00000e82:    e004        ..      B        0xe8e ; I2C_SetSlaveAddr + 54
        0x00000e84:    bf00        ..      NOP      
        0x00000e86:    0054        T.      LSLS     r4,r2,#1
        0x00000e88:    431c        .C      ORRS     r4,r4,r3
        0x00000e8a:    6044        D`      STR      r4,[r0,#4]
        0x00000e8c:    bf00        ..      NOP      
        0x00000e8e:    bf00        ..      NOP      
        0x00000e90:    bd10        ..      POP      {r4,pc}
        0x00000e92:    0000        ..      MOVS     r0,r0
    i.I2Cx_MasterRx_multi
    I2Cx_MasterRx_multi
        0x00000e94:    b570        p.      PUSH     {r4-r6,lr}
        0x00000e96:    4604        .F      MOV      r4,r0
        0x00000e98:    0760        `.      LSLS     r0,r4,#29
        0x00000e9a:    0f40        @.      LSRS     r0,r0,#29
        0x00000e9c:    2800        .(      CMP      r0,#0
        0x00000e9e:    d17d        }.      BNE      0xf9c ; I2Cx_MasterRx_multi + 264
        0x00000ea0:    10e0        ..      ASRS     r0,r4,#3
        0x00000ea2:    0003        ..      MOVS     r3,r0
        0x00000ea4:    f001fcd0    ....    BL       __ARM_common_switch8 ; 0x2848
    $d
        0x00000ea8:    4007d20c    ...@    DCD    1074254348
        0x00000eac:    b626a817    ..&.    DCD    3055986711
        0x00000eb0:    68e751c4    .Q.h    DCD    1759990212
        0x00000eb4:    e78f        ..      DCW    59279
    $t
        0x00000eb6:    487b        {H      LDR      r0,[pc,#492] ; [0x10a4] = 0x20000040
        0x00000eb8:    7800        .x      LDRB     r0,[r0,#0]
        0x00000eba:    0040        @.      LSLS     r0,r0,#1
        0x00000ebc:    497a        zI      LDR      r1,[pc,#488] ; [0x10a8] = 0x40081000
        0x00000ebe:    6088        .`      STR      r0,[r1,#8]
        0x00000ec0:    4608        .F      MOV      r0,r1
        0x00000ec2:    6800        .h      LDR      r0,[r0,#0]
        0x00000ec4:    213c        <!      MOVS     r1,#0x3c
        0x00000ec6:    4388        .C      BICS     r0,r0,r1
        0x00000ec8:    3008        .0      ADDS     r0,r0,#8
        0x00000eca:    4977        wI      LDR      r1,[pc,#476] ; [0x10a8] = 0x40081000
        0x00000ecc:    6008        .`      STR      r0,[r1,#0]
        0x00000ece:    4620         F      MOV      r0,r4
        0x00000ed0:    f000fa96    ....    BL       I2Cx_Master_LOG ; 0x1400
        0x00000ed4:    e0e4        ..      B        0x10a0 ; I2Cx_MasterRx_multi + 524
        0x00000ed6:    4875        uH      LDR      r0,[pc,#468] ; [0x10ac] = 0x20000043
        0x00000ed8:    7800        .x      LDRB     r0,[r0,#0]
        0x00000eda:    4973        sI      LDR      r1,[pc,#460] ; [0x10a8] = 0x40081000
        0x00000edc:    6088        .`      STR      r0,[r1,#8]
        0x00000ede:    4608        .F      MOV      r0,r1
        0x00000ee0:    6800        .h      LDR      r0,[r0,#0]
        0x00000ee2:    213c        <!      MOVS     r1,#0x3c
        0x00000ee4:    4388        .C      BICS     r0,r0,r1
        0x00000ee6:    3008        .0      ADDS     r0,r0,#8
        0x00000ee8:    496f        oI      LDR      r1,[pc,#444] ; [0x10a8] = 0x40081000
        0x00000eea:    6008        .`      STR      r0,[r1,#0]
        0x00000eec:    4620         F      MOV      r0,r4
        0x00000eee:    f000fa87    ....    BL       I2Cx_Master_LOG ; 0x1400
        0x00000ef2:    e0d5        ..      B        0x10a0 ; I2Cx_MasterRx_multi + 524
        0x00000ef4:    486e        nH      LDR      r0,[pc,#440] ; [0x10b0] = 0x20000042
        0x00000ef6:    7800        .x      LDRB     r0,[r0,#0]
        0x00000ef8:    2800        .(      CMP      r0,#0
        0x00000efa:    dd07        ..      BLE      0xf0c ; I2Cx_MasterRx_multi + 120
        0x00000efc:    486a        jH      LDR      r0,[pc,#424] ; [0x10a8] = 0x40081000
        0x00000efe:    6800        .h      LDR      r0,[r0,#0]
        0x00000f00:    213c        <!      MOVS     r1,#0x3c
        0x00000f02:    4388        .C      BICS     r0,r0,r1
        0x00000f04:    3028        (0      ADDS     r0,r0,#0x28
        0x00000f06:    4968        hI      LDR      r1,[pc,#416] ; [0x10a8] = 0x40081000
        0x00000f08:    6008        .`      STR      r0,[r1,#0]
        0x00000f0a:    e009        ..      B        0xf20 ; I2Cx_MasterRx_multi + 140
        0x00000f0c:    4866        fH      LDR      r0,[pc,#408] ; [0x10a8] = 0x40081000
        0x00000f0e:    6800        .h      LDR      r0,[r0,#0]
        0x00000f10:    213c        <!      MOVS     r1,#0x3c
        0x00000f12:    4388        .C      BICS     r0,r0,r1
        0x00000f14:    3018        .0      ADDS     r0,r0,#0x18
        0x00000f16:    4964        dI      LDR      r1,[pc,#400] ; [0x10a8] = 0x40081000
        0x00000f18:    6008        .`      STR      r0,[r1,#0]
        0x00000f1a:    2001        .       MOVS     r0,#1
        0x00000f1c:    4965        eI      LDR      r1,[pc,#404] ; [0x10b4] = 0x20000044
        0x00000f1e:    7008        .p      STRB     r0,[r1,#0]
        0x00000f20:    4620         F      MOV      r0,r4
        0x00000f22:    f000fa6d    ..m.    BL       I2Cx_Master_LOG ; 0x1400
        0x00000f26:    e0bb        ..      B        0x10a0 ; I2Cx_MasterRx_multi + 524
        0x00000f28:    485e        ^H      LDR      r0,[pc,#376] ; [0x10a4] = 0x20000040
        0x00000f2a:    7800        .x      LDRB     r0,[r0,#0]
        0x00000f2c:    0040        @.      LSLS     r0,r0,#1
        0x00000f2e:    1c40        @.      ADDS     r0,r0,#1
        0x00000f30:    495d        ]I      LDR      r1,[pc,#372] ; [0x10a8] = 0x40081000
        0x00000f32:    6088        .`      STR      r0,[r1,#8]
        0x00000f34:    4608        .F      MOV      r0,r1
        0x00000f36:    6800        .h      LDR      r0,[r0,#0]
        0x00000f38:    213c        <!      MOVS     r1,#0x3c
        0x00000f3a:    4388        .C      BICS     r0,r0,r1
        0x00000f3c:    3008        .0      ADDS     r0,r0,#8
        0x00000f3e:    495a        ZI      LDR      r1,[pc,#360] ; [0x10a8] = 0x40081000
        0x00000f40:    6008        .`      STR      r0,[r1,#0]
        0x00000f42:    4620         F      MOV      r0,r4
        0x00000f44:    f000fa5c    ..\.    BL       I2Cx_Master_LOG ; 0x1400
        0x00000f48:    e0aa        ..      B        0x10a0 ; I2Cx_MasterRx_multi + 524
        0x00000f4a:    4859        YH      LDR      r0,[pc,#356] ; [0x10b0] = 0x20000042
        0x00000f4c:    7800        .x      LDRB     r0,[r0,#0]
        0x00000f4e:    2801        .(      CMP      r0,#1
        0x00000f50:    dd07        ..      BLE      0xf62 ; I2Cx_MasterRx_multi + 206
        0x00000f52:    4855        UH      LDR      r0,[pc,#340] ; [0x10a8] = 0x40081000
        0x00000f54:    6800        .h      LDR      r0,[r0,#0]
        0x00000f56:    213c        <!      MOVS     r1,#0x3c
        0x00000f58:    4388        .C      BICS     r0,r0,r1
        0x00000f5a:    300c        .0      ADDS     r0,r0,#0xc
        0x00000f5c:    4952        RI      LDR      r1,[pc,#328] ; [0x10a8] = 0x40081000
        0x00000f5e:    6008        .`      STR      r0,[r1,#0]
        0x00000f60:    e006        ..      B        0xf70 ; I2Cx_MasterRx_multi + 220
        0x00000f62:    4851        QH      LDR      r0,[pc,#324] ; [0x10a8] = 0x40081000
        0x00000f64:    6800        .h      LDR      r0,[r0,#0]
        0x00000f66:    213c        <!      MOVS     r1,#0x3c
        0x00000f68:    4388        .C      BICS     r0,r0,r1
        0x00000f6a:    3008        .0      ADDS     r0,r0,#8
        0x00000f6c:    494e        NI      LDR      r1,[pc,#312] ; [0x10a8] = 0x40081000
        0x00000f6e:    6008        .`      STR      r0,[r1,#0]
        0x00000f70:    4620         F      MOV      r0,r4
        0x00000f72:    f000fa45    ..E.    BL       I2Cx_Master_LOG ; 0x1400
        0x00000f76:    e093        ..      B        0x10a0 ; I2Cx_MasterRx_multi + 524
        0x00000f78:    484b        KH      LDR      r0,[pc,#300] ; [0x10a8] = 0x40081000
        0x00000f7a:    f7ffff32    ..2.    BL       I2C_GetData ; 0xde2
        0x00000f7e:    494e        NI      LDR      r1,[pc,#312] ; [0x10b8] = 0x20000041
        0x00000f80:    780d        .x      LDRB     r5,[r1,#0]
        0x00000f82:    1c69        i.      ADDS     r1,r5,#1
        0x00000f84:    4a4c        LJ      LDR      r2,[pc,#304] ; [0x10b8] = 0x20000041
        0x00000f86:    7011        .p      STRB     r1,[r2,#0]
        0x00000f88:    494c        LI      LDR      r1,[pc,#304] ; [0x10bc] = 0x20000048
        0x00000f8a:    6809        .h      LDR      r1,[r1,#0]
        0x00000f8c:    5548        HU      STRB     r0,[r1,r5]
        0x00000f8e:    4848        HH      LDR      r0,[pc,#288] ; [0x10b0] = 0x20000042
        0x00000f90:    7800        .x      LDRB     r0,[r0,#0]
        0x00000f92:    1e40        @.      SUBS     r0,r0,#1
        0x00000f94:    4611        .F      MOV      r1,r2
        0x00000f96:    7809        .x      LDRB     r1,[r1,#0]
        0x00000f98:    4288        .B      CMP      r0,r1
        0x00000f9a:    e000        ..      B        0xf9e ; I2Cx_MasterRx_multi + 266
        0x00000f9c:    e06b        k.      B        0x1076 ; I2Cx_MasterRx_multi + 482
        0x00000f9e:    dd07        ..      BLE      0xfb0 ; I2Cx_MasterRx_multi + 284
        0x00000fa0:    4841        AH      LDR      r0,[pc,#260] ; [0x10a8] = 0x40081000
        0x00000fa2:    6800        .h      LDR      r0,[r0,#0]
        0x00000fa4:    213c        <!      MOVS     r1,#0x3c
        0x00000fa6:    4388        .C      BICS     r0,r0,r1
        0x00000fa8:    300c        .0      ADDS     r0,r0,#0xc
        0x00000faa:    493f        ?I      LDR      r1,[pc,#252] ; [0x10a8] = 0x40081000
        0x00000fac:    6008        .`      STR      r0,[r1,#0]
        0x00000fae:    e006        ..      B        0xfbe ; I2Cx_MasterRx_multi + 298
        0x00000fb0:    483d        =H      LDR      r0,[pc,#244] ; [0x10a8] = 0x40081000
        0x00000fb2:    6800        .h      LDR      r0,[r0,#0]
        0x00000fb4:    213c        <!      MOVS     r1,#0x3c
        0x00000fb6:    4388        .C      BICS     r0,r0,r1
        0x00000fb8:    3008        .0      ADDS     r0,r0,#8
        0x00000fba:    493b        ;I      LDR      r1,[pc,#236] ; [0x10a8] = 0x40081000
        0x00000fbc:    6008        .`      STR      r0,[r1,#0]
        0x00000fbe:    4620         F      MOV      r0,r4
        0x00000fc0:    f000fa1e    ....    BL       I2Cx_Master_LOG ; 0x1400
        0x00000fc4:    e06c        l.      B        0x10a0 ; I2Cx_MasterRx_multi + 524
        0x00000fc6:    4838        8H      LDR      r0,[pc,#224] ; [0x10a8] = 0x40081000
        0x00000fc8:    f7ffff0b    ....    BL       I2C_GetData ; 0xde2
        0x00000fcc:    493a        :I      LDR      r1,[pc,#232] ; [0x10b8] = 0x20000041
        0x00000fce:    780d        .x      LDRB     r5,[r1,#0]
        0x00000fd0:    1c69        i.      ADDS     r1,r5,#1
        0x00000fd2:    4a39        9J      LDR      r2,[pc,#228] ; [0x10b8] = 0x20000041
        0x00000fd4:    7011        .p      STRB     r1,[r2,#0]
        0x00000fd6:    4939        9I      LDR      r1,[pc,#228] ; [0x10bc] = 0x20000048
        0x00000fd8:    6809        .h      LDR      r1,[r1,#0]
        0x00000fda:    5548        HU      STRB     r0,[r1,r5]
        0x00000fdc:    4832        2H      LDR      r0,[pc,#200] ; [0x10a8] = 0x40081000
        0x00000fde:    6800        .h      LDR      r0,[r0,#0]
        0x00000fe0:    213c        <!      MOVS     r1,#0x3c
        0x00000fe2:    4388        .C      BICS     r0,r0,r1
        0x00000fe4:    3018        .0      ADDS     r0,r0,#0x18
        0x00000fe6:    4930        0I      LDR      r1,[pc,#192] ; [0x10a8] = 0x40081000
        0x00000fe8:    6008        .`      STR      r0,[r1,#0]
        0x00000fea:    2001        .       MOVS     r0,#1
        0x00000fec:    4931        1I      LDR      r1,[pc,#196] ; [0x10b4] = 0x20000044
        0x00000fee:    7008        .p      STRB     r0,[r1,#0]
        0x00000ff0:    4620         F      MOV      r0,r4
        0x00000ff2:    f000fa05    ....    BL       I2Cx_Master_LOG ; 0x1400
        0x00000ff6:    e053        S.      B        0x10a0 ; I2Cx_MasterRx_multi + 524
        0x00000ff8:    482b        +H      LDR      r0,[pc,#172] ; [0x10a8] = 0x40081000
        0x00000ffa:    6800        .h      LDR      r0,[r0,#0]
        0x00000ffc:    213c        <!      MOVS     r1,#0x3c
        0x00000ffe:    4388        .C      BICS     r0,r0,r1
        0x00001000:    3018        .0      ADDS     r0,r0,#0x18
        0x00001002:    4929        )I      LDR      r1,[pc,#164] ; [0x10a8] = 0x40081000
        0x00001004:    6008        .`      STR      r0,[r1,#0]
        0x00001006:    2001        .       MOVS     r0,#1
        0x00001008:    492a        *I      LDR      r1,[pc,#168] ; [0x10b4] = 0x20000044
        0x0000100a:    7008        .p      STRB     r0,[r1,#0]
        0x0000100c:    4620         F      MOV      r0,r4
        0x0000100e:    f000f9f7    ....    BL       I2Cx_Master_LOG ; 0x1400
        0x00001012:    e045        E.      B        0x10a0 ; I2Cx_MasterRx_multi + 524
        0x00001014:    4824        $H      LDR      r0,[pc,#144] ; [0x10a8] = 0x40081000
        0x00001016:    6800        .h      LDR      r0,[r0,#0]
        0x00001018:    213c        <!      MOVS     r1,#0x3c
        0x0000101a:    4388        .C      BICS     r0,r0,r1
        0x0000101c:    3018        .0      ADDS     r0,r0,#0x18
        0x0000101e:    4922        "I      LDR      r1,[pc,#136] ; [0x10a8] = 0x40081000
        0x00001020:    6008        .`      STR      r0,[r1,#0]
        0x00001022:    2001        .       MOVS     r0,#1
        0x00001024:    4923        #I      LDR      r1,[pc,#140] ; [0x10b4] = 0x20000044
        0x00001026:    7008        .p      STRB     r0,[r1,#0]
        0x00001028:    4620         F      MOV      r0,r4
        0x0000102a:    f000f9e9    ....    BL       I2Cx_Master_LOG ; 0x1400
        0x0000102e:    e037        7.      B        0x10a0 ; I2Cx_MasterRx_multi + 524
        0x00001030:    481d        .H      LDR      r0,[pc,#116] ; [0x10a8] = 0x40081000
        0x00001032:    6800        .h      LDR      r0,[r0,#0]
        0x00001034:    213c        <!      MOVS     r1,#0x3c
        0x00001036:    4388        .C      BICS     r0,r0,r1
        0x00001038:    3018        .0      ADDS     r0,r0,#0x18
        0x0000103a:    491b        .I      LDR      r1,[pc,#108] ; [0x10a8] = 0x40081000
        0x0000103c:    6008        .`      STR      r0,[r1,#0]
        0x0000103e:    2001        .       MOVS     r0,#1
        0x00001040:    491c        .I      LDR      r1,[pc,#112] ; [0x10b4] = 0x20000044
        0x00001042:    7008        .p      STRB     r0,[r1,#0]
        0x00001044:    4620         F      MOV      r0,r4
        0x00001046:    f000f9db    ....    BL       I2Cx_Master_LOG ; 0x1400
        0x0000104a:    e029        ).      B        0x10a0 ; I2Cx_MasterRx_multi + 524
        0x0000104c:    4816        .H      LDR      r0,[pc,#88] ; [0x10a8] = 0x40081000
        0x0000104e:    6800        .h      LDR      r0,[r0,#0]
        0x00001050:    213c        <!      MOVS     r1,#0x3c
        0x00001052:    4388        .C      BICS     r0,r0,r1
        0x00001054:    301c        .0      ADDS     r0,r0,#0x1c
        0x00001056:    4914        .I      LDR      r1,[pc,#80] ; [0x10a8] = 0x40081000
        0x00001058:    6008        .`      STR      r0,[r1,#0]
        0x0000105a:    4608        .F      MOV      r0,r1
        0x0000105c:    6800        .h      LDR      r0,[r0,#0]
        0x0000105e:    213c        <!      MOVS     r1,#0x3c
        0x00001060:    4388        .C      BICS     r0,r0,r1
        0x00001062:    300c        .0      ADDS     r0,r0,#0xc
        0x00001064:    4910        .I      LDR      r1,[pc,#64] ; [0x10a8] = 0x40081000
        0x00001066:    6008        .`      STR      r0,[r1,#0]
        0x00001068:    2001        .       MOVS     r0,#1
        0x0000106a:    4912        .I      LDR      r1,[pc,#72] ; [0x10b4] = 0x20000044
        0x0000106c:    7008        .p      STRB     r0,[r1,#0]
        0x0000106e:    4620         F      MOV      r0,r4
        0x00001070:    f000f9c6    ....    BL       I2Cx_Master_LOG ; 0x1400
        0x00001074:    e014        ..      B        0x10a0 ; I2Cx_MasterRx_multi + 524
        0x00001076:    480c        .H      LDR      r0,[pc,#48] ; [0x10a8] = 0x40081000
        0x00001078:    6800        .h      LDR      r0,[r0,#0]
        0x0000107a:    213c        <!      MOVS     r1,#0x3c
        0x0000107c:    4388        .C      BICS     r0,r0,r1
        0x0000107e:    3018        .0      ADDS     r0,r0,#0x18
        0x00001080:    4909        .I      LDR      r1,[pc,#36] ; [0x10a8] = 0x40081000
        0x00001082:    6008        .`      STR      r0,[r1,#0]
        0x00001084:    2001        .       MOVS     r0,#1
        0x00001086:    490b        .I      LDR      r1,[pc,#44] ; [0x10b4] = 0x20000044
        0x00001088:    7008        .p      STRB     r0,[r1,#0]
        0x0000108a:    4807        .H      LDR      r0,[pc,#28] ; [0x10a8] = 0x40081000
        0x0000108c:    f7fffe8a    ....    BL       I2C_DisableInt ; 0xda4
        0x00001090:    2013        .       MOVS     r0,#0x13
        0x00001092:    f001fbeb    ....    BL       __NVIC_DisableIRQ ; 0x286c
        0x00001096:    4621        !F      MOV      r1,r4
        0x00001098:    a009        ..      ADR      r0,{pc}+0x28 ; 0x10c0
        0x0000109a:    f001fbc5    ....    BL       __0printf$8 ; 0x2828
        0x0000109e:    bf00        ..      NOP      
        0x000010a0:    bf00        ..      NOP      
        0x000010a2:    bd70        p.      POP      {r4-r6,pc}
    $d
        0x000010a4:    20000040    @..     DCD    536870976
        0x000010a8:    40081000    ...@    DCD    1074270208
        0x000010ac:    20000043    C..     DCD    536870979
        0x000010b0:    20000042    B..     DCD    536870978
        0x000010b4:    20000044    D..     DCD    536870980
        0x000010b8:    20000041    A..     DCD    536870977
        0x000010bc:    20000048    H..     DCD    536870984
        0x000010c0:    78433249    I2Cx    DCD    2017669705
        0x000010c4:    73614d5f    _Mas    DCD    1935756639
        0x000010c8:    52726574    terR    DCD    1383228788
        0x000010cc:    756d5f78    x_mu    DCD    1970102136
        0x000010d0:    2069746c    lti     DCD    543781996
        0x000010d4:    74617453    Stat    DCD    1952543827
        0x000010d8:    30207375    us 0    DCD    807433077
        0x000010dc:    20782578    x%x     DCD    544744824
        0x000010e0:    4e207369    is N    DCD    1310749545
        0x000010e4:    7020544f    OT p    DCD    1881166927
        0x000010e8:    65636f72    roce    DCD    1701015410
        0x000010ec:    64657373    ssed    DCD    1684370291
        0x000010f0:    0000000a    ....    DCD    10
    $t
    i.I2Cx_MasterTx_multi
    I2Cx_MasterTx_multi
        0x000010f4:    b510        ..      PUSH     {r4,lr}
        0x000010f6:    4604        .F      MOV      r4,r0
        0x000010f8:    0760        `.      LSLS     r0,r4,#29
        0x000010fa:    0f40        @.      LSRS     r0,r0,#29
        0x000010fc:    2800        .(      CMP      r0,#0
        0x000010fe:    d177        w.      BNE      0x11f0 ; I2Cx_MasterTx_multi + 252
        0x00001100:    10e0        ..      ASRS     r0,r4,#3
        0x00001102:    0003        ..      MOVS     r3,r0
        0x00001104:    f001fba0    ....    BL       __ARM_common_switch8 ; 0x2848
    $d
        0x00001108:    8a057508    .u..    DCD    2315613448
        0x0000110c:    58244a15    .J$X    DCD    1478773269
        0x00001110:    8a66        f.      DCW    35430
    $t
        0x00001112:    484e        NH      LDR      r0,[pc,#312] ; [0x124c] = 0x20000040
        0x00001114:    7800        .x      LDRB     r0,[r0,#0]
        0x00001116:    0040        @.      LSLS     r0,r0,#1
        0x00001118:    494d        MI      LDR      r1,[pc,#308] ; [0x1250] = 0x40081000
        0x0000111a:    6088        .`      STR      r0,[r1,#8]
        0x0000111c:    4608        .F      MOV      r0,r1
        0x0000111e:    6800        .h      LDR      r0,[r0,#0]
        0x00001120:    213c        <!      MOVS     r1,#0x3c
        0x00001122:    4388        .C      BICS     r0,r0,r1
        0x00001124:    3008        .0      ADDS     r0,r0,#8
        0x00001126:    494a        JI      LDR      r1,[pc,#296] ; [0x1250] = 0x40081000
        0x00001128:    6008        .`      STR      r0,[r1,#0]
        0x0000112a:    4620         F      MOV      r0,r4
        0x0000112c:    f000f968    ..h.    BL       I2Cx_Master_LOG ; 0x1400
        0x00001130:    e089        ..      B        0x1246 ; I2Cx_MasterTx_multi + 338
        0x00001132:    4848        HH      LDR      r0,[pc,#288] ; [0x1254] = 0x20000043
        0x00001134:    7800        .x      LDRB     r0,[r0,#0]
        0x00001136:    4946        FI      LDR      r1,[pc,#280] ; [0x1250] = 0x40081000
        0x00001138:    6088        .`      STR      r0,[r1,#8]
        0x0000113a:    4608        .F      MOV      r0,r1
        0x0000113c:    6800        .h      LDR      r0,[r0,#0]
        0x0000113e:    213c        <!      MOVS     r1,#0x3c
        0x00001140:    4388        .C      BICS     r0,r0,r1
        0x00001142:    3008        .0      ADDS     r0,r0,#8
        0x00001144:    4942        BI      LDR      r1,[pc,#264] ; [0x1250] = 0x40081000
        0x00001146:    6008        .`      STR      r0,[r1,#0]
        0x00001148:    4620         F      MOV      r0,r4
        0x0000114a:    f000f959    ..Y.    BL       I2Cx_Master_LOG ; 0x1400
        0x0000114e:    e07a        z.      B        0x1246 ; I2Cx_MasterTx_multi + 338
        0x00001150:    4841        AH      LDR      r0,[pc,#260] ; [0x1258] = 0x20000041
        0x00001152:    7800        .x      LDRB     r0,[r0,#0]
        0x00001154:    4941        AI      LDR      r1,[pc,#260] ; [0x125c] = 0x20000042
        0x00001156:    7809        .x      LDRB     r1,[r1,#0]
        0x00001158:    4288        .B      CMP      r0,r1
        0x0000115a:    da11        ..      BGE      0x1180 ; I2Cx_MasterTx_multi + 140
        0x0000115c:    493e        >I      LDR      r1,[pc,#248] ; [0x1258] = 0x20000041
        0x0000115e:    7808        .x      LDRB     r0,[r1,#0]
        0x00001160:    1c41        A.      ADDS     r1,r0,#1
        0x00001162:    4a3d        =J      LDR      r2,[pc,#244] ; [0x1258] = 0x20000041
        0x00001164:    7011        .p      STRB     r1,[r2,#0]
        0x00001166:    493e        >I      LDR      r1,[pc,#248] ; [0x1260] = 0x20000048
        0x00001168:    6809        .h      LDR      r1,[r1,#0]
        0x0000116a:    5c09        .\      LDRB     r1,[r1,r0]
        0x0000116c:    4a38        8J      LDR      r2,[pc,#224] ; [0x1250] = 0x40081000
        0x0000116e:    6091        .`      STR      r1,[r2,#8]
        0x00001170:    4610        .F      MOV      r0,r2
        0x00001172:    6800        .h      LDR      r0,[r0,#0]
        0x00001174:    213c        <!      MOVS     r1,#0x3c
        0x00001176:    4388        .C      BICS     r0,r0,r1
        0x00001178:    3008        .0      ADDS     r0,r0,#8
        0x0000117a:    4611        .F      MOV      r1,r2
        0x0000117c:    6008        .`      STR      r0,[r1,#0]
        0x0000117e:    e009        ..      B        0x1194 ; I2Cx_MasterTx_multi + 160
        0x00001180:    4833        3H      LDR      r0,[pc,#204] ; [0x1250] = 0x40081000
        0x00001182:    6800        .h      LDR      r0,[r0,#0]
        0x00001184:    213c        <!      MOVS     r1,#0x3c
        0x00001186:    4388        .C      BICS     r0,r0,r1
        0x00001188:    3018        .0      ADDS     r0,r0,#0x18
        0x0000118a:    4931        1I      LDR      r1,[pc,#196] ; [0x1250] = 0x40081000
        0x0000118c:    6008        .`      STR      r0,[r1,#0]
        0x0000118e:    2001        .       MOVS     r0,#1
        0x00001190:    4934        4I      LDR      r1,[pc,#208] ; [0x1264] = 0x20000044
        0x00001192:    7008        .p      STRB     r0,[r1,#0]
        0x00001194:    4620         F      MOV      r0,r4
        0x00001196:    f000f933    ..3.    BL       I2Cx_Master_LOG ; 0x1400
        0x0000119a:    e054        T.      B        0x1246 ; I2Cx_MasterTx_multi + 338
        0x0000119c:    482c        ,H      LDR      r0,[pc,#176] ; [0x1250] = 0x40081000
        0x0000119e:    6800        .h      LDR      r0,[r0,#0]
        0x000011a0:    213c        <!      MOVS     r1,#0x3c
        0x000011a2:    4388        .C      BICS     r0,r0,r1
        0x000011a4:    3018        .0      ADDS     r0,r0,#0x18
        0x000011a6:    492a        *I      LDR      r1,[pc,#168] ; [0x1250] = 0x40081000
        0x000011a8:    6008        .`      STR      r0,[r1,#0]
        0x000011aa:    2001        .       MOVS     r0,#1
        0x000011ac:    492d        -I      LDR      r1,[pc,#180] ; [0x1264] = 0x20000044
        0x000011ae:    7008        .p      STRB     r0,[r1,#0]
        0x000011b0:    4620         F      MOV      r0,r4
        0x000011b2:    f000f925    ..%.    BL       I2Cx_Master_LOG ; 0x1400
        0x000011b6:    e046        F.      B        0x1246 ; I2Cx_MasterTx_multi + 338
        0x000011b8:    4825        %H      LDR      r0,[pc,#148] ; [0x1250] = 0x40081000
        0x000011ba:    6800        .h      LDR      r0,[r0,#0]
        0x000011bc:    213c        <!      MOVS     r1,#0x3c
        0x000011be:    4388        .C      BICS     r0,r0,r1
        0x000011c0:    3018        .0      ADDS     r0,r0,#0x18
        0x000011c2:    4923        #I      LDR      r1,[pc,#140] ; [0x1250] = 0x40081000
        0x000011c4:    6008        .`      STR      r0,[r1,#0]
        0x000011c6:    2001        .       MOVS     r0,#1
        0x000011c8:    4926        &I      LDR      r1,[pc,#152] ; [0x1264] = 0x20000044
        0x000011ca:    7008        .p      STRB     r0,[r1,#0]
        0x000011cc:    4620         F      MOV      r0,r4
        0x000011ce:    f000f917    ....    BL       I2Cx_Master_LOG ; 0x1400
        0x000011d2:    e038        8.      B        0x1246 ; I2Cx_MasterTx_multi + 338
        0x000011d4:    481e        .H      LDR      r0,[pc,#120] ; [0x1250] = 0x40081000
        0x000011d6:    6800        .h      LDR      r0,[r0,#0]
        0x000011d8:    213c        <!      MOVS     r1,#0x3c
        0x000011da:    4388        .C      BICS     r0,r0,r1
        0x000011dc:    302c        ,0      ADDS     r0,r0,#0x2c
        0x000011de:    491c        .I      LDR      r1,[pc,#112] ; [0x1250] = 0x40081000
        0x000011e0:    6008        .`      STR      r0,[r1,#0]
        0x000011e2:    2001        .       MOVS     r0,#1
        0x000011e4:    491f        .I      LDR      r1,[pc,#124] ; [0x1264] = 0x20000044
        0x000011e6:    7008        .p      STRB     r0,[r1,#0]
        0x000011e8:    4620         F      MOV      r0,r4
        0x000011ea:    f000f909    ....    BL       I2Cx_Master_LOG ; 0x1400
        0x000011ee:    e02a        *.      B        0x1246 ; I2Cx_MasterTx_multi + 338
        0x000011f0:    e014        ..      B        0x121c ; I2Cx_MasterTx_multi + 296
        0x000011f2:    4817        .H      LDR      r0,[pc,#92] ; [0x1250] = 0x40081000
        0x000011f4:    6800        .h      LDR      r0,[r0,#0]
        0x000011f6:    213c        <!      MOVS     r1,#0x3c
        0x000011f8:    4388        .C      BICS     r0,r0,r1
        0x000011fa:    301c        .0      ADDS     r0,r0,#0x1c
        0x000011fc:    4914        .I      LDR      r1,[pc,#80] ; [0x1250] = 0x40081000
        0x000011fe:    6008        .`      STR      r0,[r1,#0]
        0x00001200:    4608        .F      MOV      r0,r1
        0x00001202:    6800        .h      LDR      r0,[r0,#0]
        0x00001204:    213c        <!      MOVS     r1,#0x3c
        0x00001206:    4388        .C      BICS     r0,r0,r1
        0x00001208:    300c        .0      ADDS     r0,r0,#0xc
        0x0000120a:    4911        .I      LDR      r1,[pc,#68] ; [0x1250] = 0x40081000
        0x0000120c:    6008        .`      STR      r0,[r1,#0]
        0x0000120e:    2001        .       MOVS     r0,#1
        0x00001210:    4914        .I      LDR      r1,[pc,#80] ; [0x1264] = 0x20000044
        0x00001212:    7008        .p      STRB     r0,[r1,#0]
        0x00001214:    4620         F      MOV      r0,r4
        0x00001216:    f000f8f3    ....    BL       I2Cx_Master_LOG ; 0x1400
        0x0000121a:    e014        ..      B        0x1246 ; I2Cx_MasterTx_multi + 338
        0x0000121c:    480c        .H      LDR      r0,[pc,#48] ; [0x1250] = 0x40081000
        0x0000121e:    6800        .h      LDR      r0,[r0,#0]
        0x00001220:    213c        <!      MOVS     r1,#0x3c
        0x00001222:    4388        .C      BICS     r0,r0,r1
        0x00001224:    3018        .0      ADDS     r0,r0,#0x18
        0x00001226:    490a        .I      LDR      r1,[pc,#40] ; [0x1250] = 0x40081000
        0x00001228:    6008        .`      STR      r0,[r1,#0]
        0x0000122a:    2001        .       MOVS     r0,#1
        0x0000122c:    490d        .I      LDR      r1,[pc,#52] ; [0x1264] = 0x20000044
        0x0000122e:    7008        .p      STRB     r0,[r1,#0]
        0x00001230:    4807        .H      LDR      r0,[pc,#28] ; [0x1250] = 0x40081000
        0x00001232:    f7fffdb7    ....    BL       I2C_DisableInt ; 0xda4
        0x00001236:    2013        .       MOVS     r0,#0x13
        0x00001238:    f001fb18    ....    BL       __NVIC_DisableIRQ ; 0x286c
        0x0000123c:    4621        !F      MOV      r1,r4
        0x0000123e:    a00a        ..      ADR      r0,{pc}+0x2a ; 0x1268
        0x00001240:    f001faf2    ....    BL       __0printf$8 ; 0x2828
        0x00001244:    bf00        ..      NOP      
        0x00001246:    bf00        ..      NOP      
        0x00001248:    bd10        ..      POP      {r4,pc}
    $d
        0x0000124a:    0000        ..      DCW    0
        0x0000124c:    20000040    @..     DCD    536870976
        0x00001250:    40081000    ...@    DCD    1074270208
        0x00001254:    20000043    C..     DCD    536870979
        0x00001258:    20000041    A..     DCD    536870977
        0x0000125c:    20000042    B..     DCD    536870978
        0x00001260:    20000048    H..     DCD    536870984
        0x00001264:    20000044    D..     DCD    536870980
        0x00001268:    78433249    I2Cx    DCD    2017669705
        0x0000126c:    73614d5f    _Mas    DCD    1935756639
        0x00001270:    54726574    terT    DCD    1416783220
        0x00001274:    756d5f78    x_mu    DCD    1970102136
        0x00001278:    2069746c    lti     DCD    543781996
        0x0000127c:    74617453    Stat    DCD    1952543827
        0x00001280:    30207375    us 0    DCD    807433077
        0x00001284:    20782578    x%x     DCD    544744824
        0x00001288:    4e207369    is N    DCD    1310749545
        0x0000128c:    7020544f    OT p    DCD    1881166927
        0x00001290:    65636f72    roce    DCD    1701015410
        0x00001294:    64657373    ssed    DCD    1684370291
        0x00001298:    0000000a    ....    DCD    10
    $t
    i.I2Cx_Master_GPIO_Recover
    I2Cx_Master_GPIO_Recover
        0x0000129c:    b510        ..      PUSH     {r4,lr}
        0x0000129e:    2400        .$      MOVS     r4,#0
        0x000012a0:    bf00        ..      NOP      
        0x000012a2:    bf00        ..      NOP      
        0x000012a4:    bf00        ..      NOP      
        0x000012a6:    2059        Y       MOVS     r0,#0x59
        0x000012a8:    4932        2I      LDR      r1,[pc,#200] ; [0x1374] = 0x40000100
        0x000012aa:    6008        .`      STR      r0,[r1,#0]
        0x000012ac:    2016        .       MOVS     r0,#0x16
        0x000012ae:    6008        .`      STR      r0,[r1,#0]
        0x000012b0:    2088        .       MOVS     r0,#0x88
        0x000012b2:    6008        .`      STR      r0,[r1,#0]
        0x000012b4:    4608        .F      MOV      r0,r1
        0x000012b6:    6800        .h      LDR      r0,[r0,#0]
        0x000012b8:    2800        .(      CMP      r0,#0
        0x000012ba:    d0f4        ..      BEQ      0x12a6 ; I2Cx_Master_GPIO_Recover + 10
        0x000012bc:    bf00        ..      NOP      
        0x000012be:    0588        ..      LSLS     r0,r1,#22
        0x000012c0:    6b00        .k      LDR      r0,[r0,#0x30]
        0x000012c2:    21ff        .!      MOVS     r1,#0xff
        0x000012c4:    0209        ..      LSLS     r1,r1,#8
        0x000012c6:    4388        .C      BICS     r0,r0,r1
        0x000012c8:    2199        .!      MOVS     r1,#0x99
        0x000012ca:    0209        ..      LSLS     r1,r1,#8
        0x000012cc:    1840        @.      ADDS     r0,r0,r1
        0x000012ce:    0589        ..      LSLS     r1,r1,#22
        0x000012d0:    6308        .c      STR      r0,[r1,#0x30]
        0x000012d2:    2201        ."      MOVS     r2,#1
        0x000012d4:    2108        .!      MOVS     r1,#8
        0x000012d6:    4828        (H      LDR      r0,[pc,#160] ; [0x1378] = 0x40004000
        0x000012d8:    f7fffc40    ..@.    BL       GPIO_SetMode ; 0xb5c
        0x000012dc:    2201        ."      MOVS     r2,#1
        0x000012de:    2104        .!      MOVS     r1,#4
        0x000012e0:    4825        %H      LDR      r0,[pc,#148] ; [0x1378] = 0x40004000
        0x000012e2:    f7fffc3b    ..;.    BL       GPIO_SetMode ; 0xb5c
        0x000012e6:    2001        .       MOVS     r0,#1
        0x000012e8:    4924        $I      LDR      r1,[pc,#144] ; [0x137c] = 0x40004800
        0x000012ea:    60c8        .`      STR      r0,[r1,#0xc]
        0x000012ec:    6088        .`      STR      r0,[r1,#8]
        0x000012ee:    2400        .$      MOVS     r4,#0
        0x000012f0:    e00d        ..      B        0x130e ; I2Cx_Master_GPIO_Recover + 114
        0x000012f2:    2001        .       MOVS     r0,#1
        0x000012f4:    4921        !I      LDR      r1,[pc,#132] ; [0x137c] = 0x40004800
        0x000012f6:    60c8        .`      STR      r0,[r1,#0xc]
        0x000012f8:    200a        .       MOVS     r0,#0xa
        0x000012fa:    f7fffab1    ....    BL       CLK_SysTickDelay ; 0x860
        0x000012fe:    2000        .       MOVS     r0,#0
        0x00001300:    491e        .I      LDR      r1,[pc,#120] ; [0x137c] = 0x40004800
        0x00001302:    60c8        .`      STR      r0,[r1,#0xc]
        0x00001304:    200a        .       MOVS     r0,#0xa
        0x00001306:    f7fffaab    ....    BL       CLK_SysTickDelay ; 0x860
        0x0000130a:    1c60        `.      ADDS     r0,r4,#1
        0x0000130c:    b2c4        ..      UXTB     r4,r0
        0x0000130e:    2c09        .,      CMP      r4,#9
        0x00001310:    dbef        ..      BLT      0x12f2 ; I2Cx_Master_GPIO_Recover + 86
        0x00001312:    2000        .       MOVS     r0,#0
        0x00001314:    4919        .I      LDR      r1,[pc,#100] ; [0x137c] = 0x40004800
        0x00001316:    6088        .`      STR      r0,[r1,#8]
        0x00001318:    200a        .       MOVS     r0,#0xa
        0x0000131a:    f7fffaa1    ....    BL       CLK_SysTickDelay ; 0x860
        0x0000131e:    2001        .       MOVS     r0,#1
        0x00001320:    4916        .I      LDR      r1,[pc,#88] ; [0x137c] = 0x40004800
        0x00001322:    60c8        .`      STR      r0,[r1,#0xc]
        0x00001324:    200a        .       MOVS     r0,#0xa
        0x00001326:    f7fffa9b    ....    BL       CLK_SysTickDelay ; 0x860
        0x0000132a:    2001        .       MOVS     r0,#1
        0x0000132c:    4913        .I      LDR      r1,[pc,#76] ; [0x137c] = 0x40004800
        0x0000132e:    6088        .`      STR      r0,[r1,#8]
        0x00001330:    200a        .       MOVS     r0,#0xa
        0x00001332:    f7fffa95    ....    BL       CLK_SysTickDelay ; 0x860
        0x00001336:    2001        .       MOVS     r0,#1
        0x00001338:    4911        .I      LDR      r1,[pc,#68] ; [0x1380] = 0x20000044
        0x0000133a:    7008        .p      STRB     r0,[r1,#0]
        0x0000133c:    4811        .H      LDR      r0,[pc,#68] ; [0x1384] = 0x40081000
        0x0000133e:    f7fffd09    ....    BL       I2C_Close ; 0xd54
        0x00001342:    2001        .       MOVS     r0,#1
        0x00001344:    0780        ..      LSLS     r0,r0,#30
        0x00001346:    6b00        .k      LDR      r0,[r0,#0x30]
        0x00001348:    21ff        .!      MOVS     r1,#0xff
        0x0000134a:    0209        ..      LSLS     r1,r1,#8
        0x0000134c:    4388        .C      BICS     r0,r0,r1
        0x0000134e:    2199        .!      MOVS     r1,#0x99
        0x00001350:    0209        ..      LSLS     r1,r1,#8
        0x00001352:    1840        @.      ADDS     r0,r0,r1
        0x00001354:    0589        ..      LSLS     r1,r1,#22
        0x00001356:    6308        .c      STR      r0,[r1,#0x30]
        0x00001358:    490b        .I      LDR      r1,[pc,#44] ; [0x1388] = 0x186a0
        0x0000135a:    480a        .H      LDR      r0,[pc,#40] ; [0x1384] = 0x40081000
        0x0000135c:    f7fffd46    ..F.    BL       I2C_Open ; 0xdec
        0x00001360:    bf00        ..      NOP      
        0x00001362:    2000        .       MOVS     r0,#0
        0x00001364:    4903        .I      LDR      r1,[pc,#12] ; [0x1374] = 0x40000100
        0x00001366:    6008        .`      STR      r0,[r1,#0]
        0x00001368:    bf00        ..      NOP      
        0x0000136a:    4908        .I      LDR      r1,[pc,#32] ; [0x138c] = 0x3460
        0x0000136c:    a008        ..      ADR      r0,{pc}+0x24 ; 0x1390
        0x0000136e:    f001fa5b    ..[.    BL       __0printf$8 ; 0x2828
        0x00001372:    bd10        ..      POP      {r4,pc}
    $d
        0x00001374:    40000100    ...@    DCD    1073742080
        0x00001378:    40004000    .@.@    DCD    1073758208
        0x0000137c:    40004800    .H.@    DCD    1073760256
        0x00001380:    20000044    D..     DCD    536870980
        0x00001384:    40081000    ...@    DCD    1074270208
        0x00001388:    000186a0    ....    DCD    100000
        0x0000138c:    00003460    `4..    DCD    13408
        0x00001390:    64207325    %s d    DCD    1679848229
        0x00001394:    0d656e6f    one.    DCD    224751215
        0x00001398:    0000000a    ....    DCD    10
    $t
    i.I2Cx_Master_Init
    I2Cx_Master_Init
        0x0000139c:    b510        ..      PUSH     {r4,lr}
        0x0000139e:    4915        .I      LDR      r1,[pc,#84] ; [0x13f4] = 0x186a0
        0x000013a0:    4815        .H      LDR      r0,[pc,#84] ; [0x13f8] = 0x40081000
        0x000013a2:    f7fffd23    ..#.    BL       I2C_Open ; 0xdec
        0x000013a6:    2300        .#      MOVS     r3,#0
        0x000013a8:    2215        ."      MOVS     r2,#0x15
        0x000013aa:    4619        .F      MOV      r1,r3
        0x000013ac:    4812        .H      LDR      r0,[pc,#72] ; [0x13f8] = 0x40081000
        0x000013ae:    f7fffd53    ..S.    BL       I2C_SetSlaveAddr ; 0xe58
        0x000013b2:    2300        .#      MOVS     r3,#0
        0x000013b4:    2235        5"      MOVS     r2,#0x35
        0x000013b6:    2101        .!      MOVS     r1,#1
        0x000013b8:    480f        .H      LDR      r0,[pc,#60] ; [0x13f8] = 0x40081000
        0x000013ba:    f7fffd4d    ..M.    BL       I2C_SetSlaveAddr ; 0xe58
        0x000013be:    2300        .#      MOVS     r3,#0
        0x000013c0:    2255        U"      MOVS     r2,#0x55
        0x000013c2:    2102        .!      MOVS     r1,#2
        0x000013c4:    480c        .H      LDR      r0,[pc,#48] ; [0x13f8] = 0x40081000
        0x000013c6:    f7fffd47    ..G.    BL       I2C_SetSlaveAddr ; 0xe58
        0x000013ca:    2300        .#      MOVS     r3,#0
        0x000013cc:    2275        u"      MOVS     r2,#0x75
        0x000013ce:    2103        .!      MOVS     r1,#3
        0x000013d0:    4809        .H      LDR      r0,[pc,#36] ; [0x13f8] = 0x40081000
        0x000013d2:    f7fffd41    ..A.    BL       I2C_SetSlaveAddr ; 0xe58
        0x000013d6:    4808        .H      LDR      r0,[pc,#32] ; [0x13f8] = 0x40081000
        0x000013d8:    f7fffcee    ....    BL       I2C_EnableInt ; 0xdb8
        0x000013dc:    2013        .       MOVS     r0,#0x13
        0x000013de:    2800        .(      CMP      r0,#0
        0x000013e0:    db05        ..      BLT      0x13ee ; I2Cx_Master_Init + 82
        0x000013e2:    06c2        ..      LSLS     r2,r0,#27
        0x000013e4:    0ed2        ..      LSRS     r2,r2,#27
        0x000013e6:    2101        .!      MOVS     r1,#1
        0x000013e8:    4091        .@      LSLS     r1,r1,r2
        0x000013ea:    4a04        .J      LDR      r2,[pc,#16] ; [0x13fc] = 0xe000e100
        0x000013ec:    6011        .`      STR      r1,[r2,#0]
        0x000013ee:    bf00        ..      NOP      
        0x000013f0:    bd10        ..      POP      {r4,pc}
    $d
        0x000013f2:    0000        ..      DCW    0
        0x000013f4:    000186a0    ....    DCD    100000
        0x000013f8:    40081000    ...@    DCD    1074270208
        0x000013fc:    e000e100    ....    DCD    3758153984
    $t
    i.I2Cx_Master_LOG
    I2Cx_Master_LOG
        0x00001400:    4770        pG      BX       lr
        0x00001402:    0000        ..      MOVS     r0,r0
    i.I2Cx_Master_example
    I2Cx_Master_example
        0x00001404:    b5f1        ..      PUSH     {r0,r4-r7,lr}
        0x00001406:    b08e        ..      SUB      sp,sp,#0x38
        0x00001408:    2000        .       MOVS     r0,#0
        0x0000140a:    900a        ..      STR      r0,[sp,#0x28]
        0x0000140c:    900b        ..      STR      r0,[sp,#0x2c]
        0x0000140e:    900c        ..      STR      r0,[sp,#0x30]
        0x00001410:    900d        ..      STR      r0,[sp,#0x34]
        0x00001412:    9006        ..      STR      r0,[sp,#0x18]
        0x00001414:    9007        ..      STR      r0,[sp,#0x1c]
        0x00001416:    9008        ..      STR      r0,[sp,#0x20]
        0x00001418:    9009        ..      STR      r0,[sp,#0x24]
        0x0000141a:    9002        ..      STR      r0,[sp,#8]
        0x0000141c:    9003        ..      STR      r0,[sp,#0xc]
        0x0000141e:    9004        ..      STR      r0,[sp,#0x10]
        0x00001420:    9005        ..      STR      r0,[sp,#0x14]
        0x00001422:    9001        ..      STR      r0,[sp,#4]
        0x00001424:    9000        ..      STR      r0,[sp,#0]
        0x00001426:    a0fd        ..      ADR      r0,{pc}+0x3f6 ; 0x181c
        0x00001428:    f001f9fe    ....    BL       __0printf$8 ; 0x2828
        0x0000142c:    2400        .$      MOVS     r4,#0
        0x0000142e:    e003        ..      B        0x1438 ; I2Cx_Master_example + 52
        0x00001430:    2000        .       MOVS     r0,#0
        0x00001432:    a906        ..      ADD      r1,sp,#0x18
        0x00001434:    5508        .U      STRB     r0,[r1,r4]
        0x00001436:    1c64        d.      ADDS     r4,r4,#1
        0x00001438:    2c10        .,      CMP      r4,#0x10
        0x0000143a:    d3f9        ..      BCC      0x1430 ; I2Cx_Master_example + 44
        0x0000143c:    980e        ..      LDR      r0,[sp,#0x38]
        0x0000143e:    0003        ..      MOVS     r3,r0
        0x00001440:    f001fa02    ....    BL       __ARM_common_switch8 ; 0x2848
    $d
        0x00001444:    3e09060a    ...>    DCD    1040778762
        0x00001448:    fbc39368    h...    DCD    4223898472
        0x0000144c:    08f7f8f9    ....    DCD    150468857
    $t
        0x00001450:    f7ffff24    ..$.    BL       I2Cx_Master_GPIO_Recover ; 0x129c
        0x00001454:    e266        f.      B        0x1924 ; I2Cx_Master_example + 1312
        0x00001456:    2615        .&      MOVS     r6,#0x15
        0x00001458:    2566        f%      MOVS     r5,#0x66
        0x0000145a:    270a        .'      MOVS     r7,#0xa
        0x0000145c:    462a        *F      MOV      r2,r5
        0x0000145e:    4631        1F      MOV      r1,r6
        0x00001460:    a0f5        ..      ADR      r0,{pc}+0x3d8 ; 0x1838
        0x00001462:    f001f9e1    ....    BL       __0printf$8 ; 0x2828
        0x00001466:    2112        .!      MOVS     r1,#0x12
        0x00001468:    4668        hF      MOV      r0,sp
        0x0000146a:    7601        .v      STRB     r1,[r0,#0x18]
        0x0000146c:    2134        4!      MOVS     r1,#0x34
        0x0000146e:    7641        Av      STRB     r1,[r0,#0x19]
        0x00001470:    2156        V!      MOVS     r1,#0x56
        0x00001472:    7681        .v      STRB     r1,[r0,#0x1a]
        0x00001474:    2178        x!      MOVS     r1,#0x78
        0x00001476:    76c1        .v      STRB     r1,[r0,#0x1b]
        0x00001478:    2190        .!      MOVS     r1,#0x90
        0x0000147a:    7701        .w      STRB     r1,[r0,#0x1c]
        0x0000147c:    21ab        .!      MOVS     r1,#0xab
        0x0000147e:    7741        Aw      STRB     r1,[r0,#0x1d]
        0x00001480:    21cd        .!      MOVS     r1,#0xcd
        0x00001482:    7781        .w      STRB     r1,[r0,#0x1e]
        0x00001484:    21ef        .!      MOVS     r1,#0xef
        0x00001486:    77c1        .w      STRB     r1,[r0,#0x1f]
        0x00001488:    48f3        .H      LDR      r0,[pc,#972] ; [0x1858] = 0x20000058
        0x0000148a:    7801        .x      LDRB     r1,[r0,#0]
        0x0000148c:    a808        ..      ADD      r0,sp,#0x20
        0x0000148e:    7001        .p      STRB     r1,[r0,#0]
        0x00001490:    215a        Z!      MOVS     r1,#0x5a
        0x00001492:    7041        Ap      STRB     r1,[r0,#1]
        0x00001494:    463b        ;F      MOV      r3,r7
        0x00001496:    aa06        ..      ADD      r2,sp,#0x18
        0x00001498:    4629        )F      MOV      r1,r5
        0x0000149a:    4630        0F      MOV      r0,r6
        0x0000149c:    f000fd0e    ....    BL       I2Cx_Write_Multi_ToSlave ; 0x1ebc
        0x000014a0:    a0ee        ..      ADR      r0,{pc}+0x3bc ; 0x185c
        0x000014a2:    f001f9c1    ....    BL       __0printf$8 ; 0x2828
        0x000014a6:    48ec        .H      LDR      r0,[pc,#944] ; [0x1858] = 0x20000058
        0x000014a8:    8803        ..      LDRH     r3,[r0,#0]
        0x000014aa:    462a        *F      MOV      r2,r5
        0x000014ac:    4631        1F      MOV      r1,r6
        0x000014ae:    a0f0        ..      ADR      r0,{pc}+0x3c2 ; 0x1870
        0x000014b0:    f001f9ba    ....    BL       __0printf$8 ; 0x2828
        0x000014b4:    48e8        .H      LDR      r0,[pc,#928] ; [0x1858] = 0x20000058
        0x000014b6:    8800        ..      LDRH     r0,[r0,#0]
        0x000014b8:    1c40        @.      ADDS     r0,r0,#1
        0x000014ba:    49e7        .I      LDR      r1,[pc,#924] ; [0x1858] = 0x20000058
        0x000014bc:    8008        ..      STRH     r0,[r1,#0]
        0x000014be:    e231        1.      B        0x1924 ; I2Cx_Master_example + 1312
        0x000014c0:    2615        .&      MOVS     r6,#0x15
        0x000014c2:    2566        f%      MOVS     r5,#0x66
        0x000014c4:    270a        .'      MOVS     r7,#0xa
        0x000014c6:    2400        .$      MOVS     r4,#0
        0x000014c8:    e003        ..      B        0x14d2 ; I2Cx_Master_example + 206
        0x000014ca:    2000        .       MOVS     r0,#0
        0x000014cc:    a90a        ..      ADD      r1,sp,#0x28
        0x000014ce:    5508        .U      STRB     r0,[r1,r4]
        0x000014d0:    1c64        d.      ADDS     r4,r4,#1
        0x000014d2:    2c10        .,      CMP      r4,#0x10
        0x000014d4:    d3f9        ..      BCC      0x14ca ; I2Cx_Master_example + 198
        0x000014d6:    463b        ;F      MOV      r3,r7
        0x000014d8:    aa0a        ..      ADD      r2,sp,#0x28
        0x000014da:    4629        )F      MOV      r1,r5
        0x000014dc:    4630        0F      MOV      r0,r6
        0x000014de:    f000fa29    ..).    BL       I2Cx_Read_Multi_FromSlave ; 0x1934
        0x000014e2:    a0ee        ..      ADR      r0,{pc}+0x3ba ; 0x189c
        0x000014e4:    f001f9a0    ....    BL       __0printf$8 ; 0x2828
        0x000014e8:    2400        .$      MOVS     r4,#0
        0x000014ea:    e00d        ..      B        0x1508 ; I2Cx_Master_example + 260
        0x000014ec:    a80a        ..      ADD      r0,sp,#0x28
        0x000014ee:    5d01        .]      LDRB     r1,[r0,r4]
        0x000014f0:    a0f0        ..      ADR      r0,{pc}+0x3c4 ; 0x18b4
        0x000014f2:    f001f999    ....    BL       __0printf$8 ; 0x2828
        0x000014f6:    1c60        `.      ADDS     r0,r4,#1
        0x000014f8:    0740        @.      LSLS     r0,r0,#29
        0x000014fa:    0f40        @.      LSRS     r0,r0,#29
        0x000014fc:    2800        .(      CMP      r0,#0
        0x000014fe:    d102        ..      BNE      0x1506 ; I2Cx_Master_example + 258
        0x00001500:    a0d4        ..      ADR      r0,{pc}+0x354 ; 0x1854
        0x00001502:    f001f991    ....    BL       __0printf$8 ; 0x2828
        0x00001506:    1c64        d.      ADDS     r4,r4,#1
        0x00001508:    2c10        .,      CMP      r4,#0x10
        0x0000150a:    d3ef        ..      BCC      0x14ec ; I2Cx_Master_example + 232
        0x0000150c:    a0eb        ..      ADR      r0,{pc}+0x3b0 ; 0x18bc
        0x0000150e:    f001f98b    ....    BL       __0printf$8 ; 0x2828
        0x00001512:    e207        ..      B        0x1924 ; I2Cx_Master_example + 1312
        0x00001514:    2615        .&      MOVS     r6,#0x15
        0x00001516:    2500        .%      MOVS     r5,#0
        0x00001518:    2703        .'      MOVS     r7,#3
        0x0000151a:    4668        hF      MOV      r0,sp
        0x0000151c:    7205        .r      STRB     r5,[r0,#8]
        0x0000151e:    48ce        .H      LDR      r0,[pc,#824] ; [0x1858] = 0x20000058
        0x00001520:    7801        .x      LDRB     r1,[r0,#0]
        0x00001522:    4668        hF      MOV      r0,sp
        0x00001524:    7241        Ar      STRB     r1,[r0,#9]
        0x00001526:    2102        .!      MOVS     r1,#2
        0x00001528:    a802        ..      ADD      r0,sp,#8
        0x0000152a:    f7fff9e3    ....    BL       CRC_Get ; 0x8f4
        0x0000152e:    9001        ..      STR      r0,[sp,#4]
        0x00001530:    4668        hF      MOV      r0,sp
        0x00001532:    7a41        Az      LDRB     r1,[r0,#9]
        0x00001534:    7601        .v      STRB     r1,[r0,#0x18]
        0x00001536:    9901        ..      LDR      r1,[sp,#4]
        0x00001538:    7641        Av      STRB     r1,[r0,#0x19]
        0x0000153a:    215a        Z!      MOVS     r1,#0x5a
        0x0000153c:    7681        .v      STRB     r1,[r0,#0x1a]
        0x0000153e:    463b        ;F      MOV      r3,r7
        0x00001540:    aa06        ..      ADD      r2,sp,#0x18
        0x00001542:    4629        )F      MOV      r1,r5
        0x00001544:    4630        0F      MOV      r0,r6
        0x00001546:    f000fcb9    ....    BL       I2Cx_Write_Multi_ToSlave ; 0x1ebc
        0x0000154a:    a0c4        ..      ADR      r0,{pc}+0x312 ; 0x185c
        0x0000154c:    f001f96c    ..l.    BL       __0printf$8 ; 0x2828
        0x00001550:    48c1        .H      LDR      r0,[pc,#772] ; [0x1858] = 0x20000058
        0x00001552:    8803        ..      LDRH     r3,[r0,#0]
        0x00001554:    462a        *F      MOV      r2,r5
        0x00001556:    4631        1F      MOV      r1,r6
        0x00001558:    a0c5        ..      ADR      r0,{pc}+0x318 ; 0x1870
        0x0000155a:    f001f965    ..e.    BL       __0printf$8 ; 0x2828
        0x0000155e:    48be        .H      LDR      r0,[pc,#760] ; [0x1858] = 0x20000058
        0x00001560:    8800        ..      LDRH     r0,[r0,#0]
        0x00001562:    1c40        @.      ADDS     r0,r0,#1
        0x00001564:    49bc        .I      LDR      r1,[pc,#752] ; [0x1858] = 0x20000058
        0x00001566:    8008        ..      STRH     r0,[r1,#0]
        0x00001568:    e1dc        ..      B        0x1924 ; I2Cx_Master_example + 1312
        0x0000156a:    2615        .&      MOVS     r6,#0x15
        0x0000156c:    2501        .%      MOVS     r5,#1
        0x0000156e:    2706        .'      MOVS     r7,#6
        0x00001570:    4668        hF      MOV      r0,sp
        0x00001572:    7205        .r      STRB     r5,[r0,#8]
        0x00001574:    210d        .!      MOVS     r1,#0xd
        0x00001576:    7241        Ar      STRB     r1,[r0,#9]
        0x00001578:    211d        .!      MOVS     r1,#0x1d
        0x0000157a:    7281        .r      STRB     r1,[r0,#0xa]
        0x0000157c:    212d        -!      MOVS     r1,#0x2d
        0x0000157e:    72c1        .r      STRB     r1,[r0,#0xb]
        0x00001580:    213d        =!      MOVS     r1,#0x3d
        0x00001582:    7301        .s      STRB     r1,[r0,#0xc]
        0x00001584:    2105        .!      MOVS     r1,#5
        0x00001586:    a802        ..      ADD      r0,sp,#8
        0x00001588:    f7fff9b4    ....    BL       CRC_Get ; 0x8f4
        0x0000158c:    9001        ..      STR      r0,[sp,#4]
        0x0000158e:    4668        hF      MOV      r0,sp
        0x00001590:    7a41        Az      LDRB     r1,[r0,#9]
        0x00001592:    7601        .v      STRB     r1,[r0,#0x18]
        0x00001594:    7a81        .z      LDRB     r1,[r0,#0xa]
        0x00001596:    7641        Av      STRB     r1,[r0,#0x19]
        0x00001598:    7ac1        .z      LDRB     r1,[r0,#0xb]
        0x0000159a:    7681        .v      STRB     r1,[r0,#0x1a]
        0x0000159c:    7b01        .{      LDRB     r1,[r0,#0xc]
        0x0000159e:    76c1        .v      STRB     r1,[r0,#0x1b]
        0x000015a0:    9901        ..      LDR      r1,[sp,#4]
        0x000015a2:    7701        .w      STRB     r1,[r0,#0x1c]
        0x000015a4:    215a        Z!      MOVS     r1,#0x5a
        0x000015a6:    7741        Aw      STRB     r1,[r0,#0x1d]
        0x000015a8:    463b        ;F      MOV      r3,r7
        0x000015aa:    aa06        ..      ADD      r2,sp,#0x18
        0x000015ac:    4629        )F      MOV      r1,r5
        0x000015ae:    4630        0F      MOV      r0,r6
        0x000015b0:    f000fc84    ....    BL       I2Cx_Write_Multi_ToSlave ; 0x1ebc
        0x000015b4:    a0a9        ..      ADR      r0,{pc}+0x2a8 ; 0x185c
        0x000015b6:    f001f937    ..7.    BL       __0printf$8 ; 0x2828
        0x000015ba:    48c2        .H      LDR      r0,[pc,#776] ; [0x18c4] = 0x20000054
        0x000015bc:    462a        *F      MOV      r2,r5
        0x000015be:    4631        1F      MOV      r1,r6
        0x000015c0:    6803        .h      LDR      r3,[r0,#0]
        0x000015c2:    a0ab        ..      ADR      r0,{pc}+0x2ae ; 0x1870
        0x000015c4:    f001f930    ..0.    BL       __0printf$8 ; 0x2828
        0x000015c8:    e1ac        ..      B        0x1924 ; I2Cx_Master_example + 1312
        0x000015ca:    2615        .&      MOVS     r6,#0x15
        0x000015cc:    2502        .%      MOVS     r5,#2
        0x000015ce:    2707        .'      MOVS     r7,#7
        0x000015d0:    4668        hF      MOV      r0,sp
        0x000015d2:    7205        .r      STRB     r5,[r0,#8]
        0x000015d4:    2101        .!      MOVS     r1,#1
        0x000015d6:    7241        Ar      STRB     r1,[r0,#9]
        0x000015d8:    211e        .!      MOVS     r1,#0x1e
        0x000015da:    7281        .r      STRB     r1,[r0,#0xa]
        0x000015dc:    212e        .!      MOVS     r1,#0x2e
        0x000015de:    72c1        .r      STRB     r1,[r0,#0xb]
        0x000015e0:    213e        >!      MOVS     r1,#0x3e
        0x000015e2:    7301        .s      STRB     r1,[r0,#0xc]
        0x000015e4:    214e        N!      MOVS     r1,#0x4e
        0x000015e6:    7341        As      STRB     r1,[r0,#0xd]
        0x000015e8:    2106        .!      MOVS     r1,#6
        0x000015ea:    a802        ..      ADD      r0,sp,#8
        0x000015ec:    f7fff982    ....    BL       CRC_Get ; 0x8f4
        0x000015f0:    9001        ..      STR      r0,[sp,#4]
        0x000015f2:    4668        hF      MOV      r0,sp
        0x000015f4:    7a41        Az      LDRB     r1,[r0,#9]
        0x000015f6:    7601        .v      STRB     r1,[r0,#0x18]
        0x000015f8:    7a81        .z      LDRB     r1,[r0,#0xa]
        0x000015fa:    7641        Av      STRB     r1,[r0,#0x19]
        0x000015fc:    7ac1        .z      LDRB     r1,[r0,#0xb]
        0x000015fe:    7681        .v      STRB     r1,[r0,#0x1a]
        0x00001600:    7b01        .{      LDRB     r1,[r0,#0xc]
        0x00001602:    76c1        .v      STRB     r1,[r0,#0x1b]
        0x00001604:    7b41        A{      LDRB     r1,[r0,#0xd]
        0x00001606:    7701        .w      STRB     r1,[r0,#0x1c]
        0x00001608:    9901        ..      LDR      r1,[sp,#4]
        0x0000160a:    7741        Aw      STRB     r1,[r0,#0x1d]
        0x0000160c:    215a        Z!      MOVS     r1,#0x5a
        0x0000160e:    7781        .w      STRB     r1,[r0,#0x1e]
        0x00001610:    463b        ;F      MOV      r3,r7
        0x00001612:    aa06        ..      ADD      r2,sp,#0x18
        0x00001614:    4629        )F      MOV      r1,r5
        0x00001616:    4630        0F      MOV      r0,r6
        0x00001618:    f000fc50    ..P.    BL       I2Cx_Write_Multi_ToSlave ; 0x1ebc
        0x0000161c:    a08f        ..      ADR      r0,{pc}+0x240 ; 0x185c
        0x0000161e:    f001f903    ....    BL       __0printf$8 ; 0x2828
        0x00001622:    48a8        .H      LDR      r0,[pc,#672] ; [0x18c4] = 0x20000054
        0x00001624:    462a        *F      MOV      r2,r5
        0x00001626:    4631        1F      MOV      r1,r6
        0x00001628:    6803        .h      LDR      r3,[r0,#0]
        0x0000162a:    a091        ..      ADR      r0,{pc}+0x246 ; 0x1870
        0x0000162c:    f001f8fc    ....    BL       __0printf$8 ; 0x2828
        0x00001630:    e178        x.      B        0x1924 ; I2Cx_Master_example + 1312
        0x00001632:    e0bf        ..      B        0x17b4 ; I2Cx_Master_example + 944
        0x00001634:    e063        c.      B        0x16fe ; I2Cx_Master_example + 762
        0x00001636:    e038        8.      B        0x16aa ; I2Cx_Master_example + 678
        0x00001638:    e7ff        ..      B        0x163a ; I2Cx_Master_example + 566
        0x0000163a:    2615        .&      MOVS     r6,#0x15
        0x0000163c:    257a        z%      MOVS     r5,#0x7a
        0x0000163e:    2708        .'      MOVS     r7,#8
        0x00001640:    4668        hF      MOV      r0,sp
        0x00001642:    7205        .r      STRB     r5,[r0,#8]
        0x00001644:    2101        .!      MOVS     r1,#1
        0x00001646:    7241        Ar      STRB     r1,[r0,#9]
        0x00001648:    211f        .!      MOVS     r1,#0x1f
        0x0000164a:    7281        .r      STRB     r1,[r0,#0xa]
        0x0000164c:    212f        /!      MOVS     r1,#0x2f
        0x0000164e:    72c1        .r      STRB     r1,[r0,#0xb]
        0x00001650:    213f        ?!      MOVS     r1,#0x3f
        0x00001652:    7301        .s      STRB     r1,[r0,#0xc]
        0x00001654:    214f        O!      MOVS     r1,#0x4f
        0x00001656:    7341        As      STRB     r1,[r0,#0xd]
        0x00001658:    215f        _!      MOVS     r1,#0x5f
        0x0000165a:    7381        .s      STRB     r1,[r0,#0xe]
        0x0000165c:    2107        .!      MOVS     r1,#7
        0x0000165e:    a802        ..      ADD      r0,sp,#8
        0x00001660:    f7fff948    ..H.    BL       CRC_Get ; 0x8f4
        0x00001664:    9001        ..      STR      r0,[sp,#4]
        0x00001666:    4668        hF      MOV      r0,sp
        0x00001668:    7a41        Az      LDRB     r1,[r0,#9]
        0x0000166a:    7601        .v      STRB     r1,[r0,#0x18]
        0x0000166c:    7a81        .z      LDRB     r1,[r0,#0xa]
        0x0000166e:    7641        Av      STRB     r1,[r0,#0x19]
        0x00001670:    7ac1        .z      LDRB     r1,[r0,#0xb]
        0x00001672:    7681        .v      STRB     r1,[r0,#0x1a]
        0x00001674:    7b01        .{      LDRB     r1,[r0,#0xc]
        0x00001676:    76c1        .v      STRB     r1,[r0,#0x1b]
        0x00001678:    7b41        A{      LDRB     r1,[r0,#0xd]
        0x0000167a:    7701        .w      STRB     r1,[r0,#0x1c]
        0x0000167c:    7b81        .{      LDRB     r1,[r0,#0xe]
        0x0000167e:    7741        Aw      STRB     r1,[r0,#0x1d]
        0x00001680:    9901        ..      LDR      r1,[sp,#4]
        0x00001682:    7781        .w      STRB     r1,[r0,#0x1e]
        0x00001684:    215a        Z!      MOVS     r1,#0x5a
        0x00001686:    77c1        .w      STRB     r1,[r0,#0x1f]
        0x00001688:    463b        ;F      MOV      r3,r7
        0x0000168a:    aa06        ..      ADD      r2,sp,#0x18
        0x0000168c:    4629        )F      MOV      r1,r5
        0x0000168e:    4630        0F      MOV      r0,r6
        0x00001690:    f000fc14    ....    BL       I2Cx_Write_Multi_ToSlave ; 0x1ebc
        0x00001694:    a071        q.      ADR      r0,{pc}+0x1c8 ; 0x185c
        0x00001696:    f001f8c7    ....    BL       __0printf$8 ; 0x2828
        0x0000169a:    488a        .H      LDR      r0,[pc,#552] ; [0x18c4] = 0x20000054
        0x0000169c:    462a        *F      MOV      r2,r5
        0x0000169e:    4631        1F      MOV      r1,r6
        0x000016a0:    6803        .h      LDR      r3,[r0,#0]
        0x000016a2:    a073        s.      ADR      r0,{pc}+0x1ce ; 0x1870
        0x000016a4:    f001f8c0    ....    BL       __0printf$8 ; 0x2828
        0x000016a8:    e13c        <.      B        0x1924 ; I2Cx_Master_example + 1312
        0x000016aa:    2615        .&      MOVS     r6,#0x15
        0x000016ac:    257a        z%      MOVS     r5,#0x7a
        0x000016ae:    2708        .'      MOVS     r7,#8
        0x000016b0:    2400        .$      MOVS     r4,#0
        0x000016b2:    e003        ..      B        0x16bc ; I2Cx_Master_example + 696
        0x000016b4:    2000        .       MOVS     r0,#0
        0x000016b6:    a90a        ..      ADD      r1,sp,#0x28
        0x000016b8:    5508        .U      STRB     r0,[r1,r4]
        0x000016ba:    1c64        d.      ADDS     r4,r4,#1
        0x000016bc:    2c10        .,      CMP      r4,#0x10
        0x000016be:    d3f9        ..      BCC      0x16b4 ; I2Cx_Master_example + 688
        0x000016c0:    463b        ;F      MOV      r3,r7
        0x000016c2:    aa0a        ..      ADD      r2,sp,#0x28
        0x000016c4:    4629        )F      MOV      r1,r5
        0x000016c6:    4630        0F      MOV      r0,r6
        0x000016c8:    f000f934    ..4.    BL       I2Cx_Read_Multi_FromSlave ; 0x1934
        0x000016cc:    a073        s.      ADR      r0,{pc}+0x1d0 ; 0x189c
        0x000016ce:    f001f8ab    ....    BL       __0printf$8 ; 0x2828
        0x000016d2:    2400        .$      MOVS     r4,#0
        0x000016d4:    e00d        ..      B        0x16f2 ; I2Cx_Master_example + 750
        0x000016d6:    a80a        ..      ADD      r0,sp,#0x28
        0x000016d8:    5d01        .]      LDRB     r1,[r0,r4]
        0x000016da:    a076        v.      ADR      r0,{pc}+0x1da ; 0x18b4
        0x000016dc:    f001f8a4    ....    BL       __0printf$8 ; 0x2828
        0x000016e0:    1c60        `.      ADDS     r0,r4,#1
        0x000016e2:    0740        @.      LSLS     r0,r0,#29
        0x000016e4:    0f40        @.      LSRS     r0,r0,#29
        0x000016e6:    2800        .(      CMP      r0,#0
        0x000016e8:    d102        ..      BNE      0x16f0 ; I2Cx_Master_example + 748
        0x000016ea:    a05a        Z.      ADR      r0,{pc}+0x16a ; 0x1854
        0x000016ec:    f001f89c    ....    BL       __0printf$8 ; 0x2828
        0x000016f0:    1c64        d.      ADDS     r4,r4,#1
        0x000016f2:    2c10        .,      CMP      r4,#0x10
        0x000016f4:    d3ef        ..      BCC      0x16d6 ; I2Cx_Master_example + 722
        0x000016f6:    a071        q.      ADR      r0,{pc}+0x1c6 ; 0x18bc
        0x000016f8:    f001f896    ....    BL       __0printf$8 ; 0x2828
        0x000016fc:    e112        ..      B        0x1924 ; I2Cx_Master_example + 1312
        0x000016fe:    2000        .       MOVS     r0,#0
        0x00001700:    9000        ..      STR      r0,[sp,#0]
        0x00001702:    bf00        ..      NOP      
        0x00001704:    2615        .&      MOVS     r6,#0x15
        0x00001706:    257a        z%      MOVS     r5,#0x7a
        0x00001708:    2708        .'      MOVS     r7,#8
        0x0000170a:    2112        .!      MOVS     r1,#0x12
        0x0000170c:    4668        hF      MOV      r0,sp
        0x0000170e:    7601        .v      STRB     r1,[r0,#0x18]
        0x00001710:    2134        4!      MOVS     r1,#0x34
        0x00001712:    7641        Av      STRB     r1,[r0,#0x19]
        0x00001714:    2156        V!      MOVS     r1,#0x56
        0x00001716:    7681        .v      STRB     r1,[r0,#0x1a]
        0x00001718:    2178        x!      MOVS     r1,#0x78
        0x0000171a:    76c1        .v      STRB     r1,[r0,#0x1b]
        0x0000171c:    2190        .!      MOVS     r1,#0x90
        0x0000171e:    7701        .w      STRB     r1,[r0,#0x1c]
        0x00001720:    21ab        .!      MOVS     r1,#0xab
        0x00001722:    7741        Aw      STRB     r1,[r0,#0x1d]
        0x00001724:    484c        LH      LDR      r0,[pc,#304] ; [0x1858] = 0x20000058
        0x00001726:    7801        .x      LDRB     r1,[r0,#0]
        0x00001728:    4668        hF      MOV      r0,sp
        0x0000172a:    7781        .w      STRB     r1,[r0,#0x1e]
        0x0000172c:    215a        Z!      MOVS     r1,#0x5a
        0x0000172e:    77c1        .w      STRB     r1,[r0,#0x1f]
        0x00001730:    463b        ;F      MOV      r3,r7
        0x00001732:    aa06        ..      ADD      r2,sp,#0x18
        0x00001734:    4629        )F      MOV      r1,r5
        0x00001736:    4630        0F      MOV      r0,r6
        0x00001738:    f000fbc0    ....    BL       I2Cx_Write_Multi_ToSlave ; 0x1ebc
        0x0000173c:    a047        G.      ADR      r0,{pc}+0x120 ; 0x185c
        0x0000173e:    f001f873    ..s.    BL       __0printf$8 ; 0x2828
        0x00001742:    4845        EH      LDR      r0,[pc,#276] ; [0x1858] = 0x20000058
        0x00001744:    8803        ..      LDRH     r3,[r0,#0]
        0x00001746:    462a        *F      MOV      r2,r5
        0x00001748:    4631        1F      MOV      r1,r6
        0x0000174a:    a049        I.      ADR      r0,{pc}+0x126 ; 0x1870
        0x0000174c:    f001f86c    ..l.    BL       __0printf$8 ; 0x2828
        0x00001750:    4841        AH      LDR      r0,[pc,#260] ; [0x1858] = 0x20000058
        0x00001752:    8800        ..      LDRH     r0,[r0,#0]
        0x00001754:    1c40        @.      ADDS     r0,r0,#1
        0x00001756:    4940        @I      LDR      r1,[pc,#256] ; [0x1858] = 0x20000058
        0x00001758:    8008        ..      STRH     r0,[r1,#0]
        0x0000175a:    2400        .$      MOVS     r4,#0
        0x0000175c:    e003        ..      B        0x1766 ; I2Cx_Master_example + 866
        0x0000175e:    2000        .       MOVS     r0,#0
        0x00001760:    a90a        ..      ADD      r1,sp,#0x28
        0x00001762:    5508        .U      STRB     r0,[r1,r4]
        0x00001764:    1c64        d.      ADDS     r4,r4,#1
        0x00001766:    2c10        .,      CMP      r4,#0x10
        0x00001768:    d3f9        ..      BCC      0x175e ; I2Cx_Master_example + 858
        0x0000176a:    463b        ;F      MOV      r3,r7
        0x0000176c:    aa0a        ..      ADD      r2,sp,#0x28
        0x0000176e:    4629        )F      MOV      r1,r5
        0x00001770:    4630        0F      MOV      r0,r6
        0x00001772:    f000f8df    ....    BL       I2Cx_Read_Multi_FromSlave ; 0x1934
        0x00001776:    a049        I.      ADR      r0,{pc}+0x126 ; 0x189c
        0x00001778:    f001f856    ..V.    BL       __0printf$8 ; 0x2828
        0x0000177c:    2400        .$      MOVS     r4,#0
        0x0000177e:    e00d        ..      B        0x179c ; I2Cx_Master_example + 920
        0x00001780:    a80a        ..      ADD      r0,sp,#0x28
        0x00001782:    5d01        .]      LDRB     r1,[r0,r4]
        0x00001784:    a04b        K.      ADR      r0,{pc}+0x130 ; 0x18b4
        0x00001786:    f001f84f    ..O.    BL       __0printf$8 ; 0x2828
        0x0000178a:    1c60        `.      ADDS     r0,r4,#1
        0x0000178c:    0740        @.      LSLS     r0,r0,#29
        0x0000178e:    0f40        @.      LSRS     r0,r0,#29
        0x00001790:    2800        .(      CMP      r0,#0
        0x00001792:    d102        ..      BNE      0x179a ; I2Cx_Master_example + 918
        0x00001794:    a02f        /.      ADR      r0,{pc}+0xc0 ; 0x1854
        0x00001796:    f001f847    ..G.    BL       __0printf$8 ; 0x2828
        0x0000179a:    1c64        d.      ADDS     r4,r4,#1
        0x0000179c:    2c10        .,      CMP      r4,#0x10
        0x0000179e:    d3ef        ..      BCC      0x1780 ; I2Cx_Master_example + 892
        0x000017a0:    a046        F.      ADR      r0,{pc}+0x11c ; 0x18bc
        0x000017a2:    f001f841    ..A.    BL       __0printf$8 ; 0x2828
        0x000017a6:    9800        ..      LDR      r0,[sp,#0]
        0x000017a8:    1c41        A.      ADDS     r1,r0,#1
        0x000017aa:    b2c9        ..      UXTB     r1,r1
        0x000017ac:    9100        ..      STR      r1,[sp,#0]
        0x000017ae:    2801        .(      CMP      r0,#1
        0x000017b0:    dba8        ..      BLT      0x1704 ; I2Cx_Master_example + 768
        0x000017b2:    e0b7        ..      B        0x1924 ; I2Cx_Master_example + 1312
        0x000017b4:    2000        .       MOVS     r0,#0
        0x000017b6:    9000        ..      STR      r0,[sp,#0]
        0x000017b8:    bf00        ..      NOP      
        0x000017ba:    2615        .&      MOVS     r6,#0x15
        0x000017bc:    2566        f%      MOVS     r5,#0x66
        0x000017be:    270a        .'      MOVS     r7,#0xa
        0x000017c0:    2112        .!      MOVS     r1,#0x12
        0x000017c2:    4668        hF      MOV      r0,sp
        0x000017c4:    7601        .v      STRB     r1,[r0,#0x18]
        0x000017c6:    2134        4!      MOVS     r1,#0x34
        0x000017c8:    7641        Av      STRB     r1,[r0,#0x19]
        0x000017ca:    2156        V!      MOVS     r1,#0x56
        0x000017cc:    7681        .v      STRB     r1,[r0,#0x1a]
        0x000017ce:    2178        x!      MOVS     r1,#0x78
        0x000017d0:    76c1        .v      STRB     r1,[r0,#0x1b]
        0x000017d2:    2190        .!      MOVS     r1,#0x90
        0x000017d4:    7701        .w      STRB     r1,[r0,#0x1c]
        0x000017d6:    21ab        .!      MOVS     r1,#0xab
        0x000017d8:    7741        Aw      STRB     r1,[r0,#0x1d]
        0x000017da:    21cd        .!      MOVS     r1,#0xcd
        0x000017dc:    7781        .w      STRB     r1,[r0,#0x1e]
        0x000017de:    21ef        .!      MOVS     r1,#0xef
        0x000017e0:    77c1        .w      STRB     r1,[r0,#0x1f]
        0x000017e2:    481d        .H      LDR      r0,[pc,#116] ; [0x1858] = 0x20000058
        0x000017e4:    7801        .x      LDRB     r1,[r0,#0]
        0x000017e6:    a808        ..      ADD      r0,sp,#0x20
        0x000017e8:    7001        .p      STRB     r1,[r0,#0]
        0x000017ea:    215a        Z!      MOVS     r1,#0x5a
        0x000017ec:    7041        Ap      STRB     r1,[r0,#1]
        0x000017ee:    463b        ;F      MOV      r3,r7
        0x000017f0:    aa06        ..      ADD      r2,sp,#0x18
        0x000017f2:    4629        )F      MOV      r1,r5
        0x000017f4:    4630        0F      MOV      r0,r6
        0x000017f6:    f000fb61    ..a.    BL       I2Cx_Write_Multi_ToSlave ; 0x1ebc
        0x000017fa:    a018        ..      ADR      r0,{pc}+0x62 ; 0x185c
        0x000017fc:    f001f814    ....    BL       __0printf$8 ; 0x2828
        0x00001800:    4815        .H      LDR      r0,[pc,#84] ; [0x1858] = 0x20000058
        0x00001802:    8803        ..      LDRH     r3,[r0,#0]
        0x00001804:    462a        *F      MOV      r2,r5
        0x00001806:    4631        1F      MOV      r1,r6
        0x00001808:    a019        ..      ADR      r0,{pc}+0x68 ; 0x1870
        0x0000180a:    f001f80d    ....    BL       __0printf$8 ; 0x2828
        0x0000180e:    4812        .H      LDR      r0,[pc,#72] ; [0x1858] = 0x20000058
        0x00001810:    8800        ..      LDRH     r0,[r0,#0]
        0x00001812:    1c40        @.      ADDS     r0,r0,#1
        0x00001814:    4910        .I      LDR      r1,[pc,#64] ; [0x1858] = 0x20000058
        0x00001816:    8008        ..      STRH     r0,[r1,#0]
        0x00001818:    2400        .$      MOVS     r4,#0
        0x0000181a:    e059        Y.      B        0x18d0 ; I2Cx_Master_example + 1228
    $d
        0x0000181c:    78433249    I2Cx    DCD    2017669705
        0x00001820:    73614d5f    _Mas    DCD    1935756639
        0x00001824:    5f726574    ter_    DCD    1601332596
        0x00001828:    6d617865    exam    DCD    1835104357
        0x0000182c:    20656c70    ple     DCD    543517808
        0x00001830:    72617473    star    DCD    1918989427
        0x00001834:    000a0d74    t...    DCD    658804
        0x00001838:    64612957    W)ad    DCD    1684089175
        0x0000183c:    3a207264    dr :    DCD    975204964
        0x00001840:    25783020     0x%    DCD    628633632
        0x00001844:    202c5832    2X,     DCD    539777074
        0x00001848:    20676572    reg     DCD    543647090
        0x0000184c:    7830203a    : 0x    DCD    2016419898
        0x00001850:    20583225    %2X     DCD    542650917
        0x00001854:    00000a0d    ....    DCD    2573
        0x00001858:    20000058    X..     DCD    536871000
        0x0000185c:    78433249    I2Cx    DCD    2017669705
        0x00001860:    6972575f    _Wri    DCD    1769101151
        0x00001864:    66206574    te f    DCD    1713399156
        0x00001868:    73696e69    inis    DCD    1936289385
        0x0000186c:    000a0d68    h...    DCD    658792
        0x00001870:    72646461    addr    DCD    1919181921
        0x00001874:    30203a20     : 0    DCD    807418400
        0x00001878:    58322578    x%2X    DCD    1479681400
        0x0000187c:    6572202c    , re    DCD    1701978156
        0x00001880:    203a2067    g :     DCD    540680295
        0x00001884:    32257830    0x%2    DCD    841316400
        0x00001888:    202c2058    X ,     DCD    539762776
        0x0000188c:    61746164    data    DCD    1635017060
        0x00001890:    32252820     (%2    DCD    841295904
        0x00001894:    3a202964    d) :    DCD    975186276
        0x00001898:    000a0d20     ...    DCD    658720
        0x0000189c:    32490a0d    ..I2    DCD    843647501
        0x000018a0:    525f7843    Cx_R    DCD    1381988419
        0x000018a4:    20646165    ead     DCD    543449445
        0x000018a8:    696e6966    fini    DCD    1768843622
        0x000018ac:    0a0d6873    sh..    DCD    168650867
        0x000018b0:    00000000    ....    DCD    0
        0x000018b4:    32257830    0x%2    DCD    841316400
        0x000018b8:    002c2058    X ,.    DCD    2891864
        0x000018bc:    0a0d0a0d    ....    DCD    168626701
        0x000018c0:    00000a0d    ....    DCD    2573
        0x000018c4:    20000054    T..     DCD    536870996
    $t
        0x000018c8:    2000        .       MOVS     r0,#0
        0x000018ca:    a90a        ..      ADD      r1,sp,#0x28
        0x000018cc:    5508        .U      STRB     r0,[r1,r4]
        0x000018ce:    1c64        d.      ADDS     r4,r4,#1
        0x000018d0:    2c10        .,      CMP      r4,#0x10
        0x000018d2:    d3f9        ..      BCC      0x18c8 ; I2Cx_Master_example + 1220
        0x000018d4:    463b        ;F      MOV      r3,r7
        0x000018d6:    aa0a        ..      ADD      r2,sp,#0x28
        0x000018d8:    4629        )F      MOV      r1,r5
        0x000018da:    4630        0F      MOV      r0,r6
        0x000018dc:    f000f82a    ..*.    BL       I2Cx_Read_Multi_FromSlave ; 0x1934
        0x000018e0:    4812        .H      LDR      r0,[pc,#72] ; [0x192c] = 0x189c
        0x000018e2:    f000ffa1    ....    BL       __0printf$8 ; 0x2828
        0x000018e6:    2400        .$      MOVS     r4,#0
        0x000018e8:    e00e        ..      B        0x1908 ; I2Cx_Master_example + 1284
        0x000018ea:    a80a        ..      ADD      r0,sp,#0x28
        0x000018ec:    5d01        .]      LDRB     r1,[r0,r4]
        0x000018ee:    480f        .H      LDR      r0,[pc,#60] ; [0x192c] = 0x189c
        0x000018f0:    3018        .0      ADDS     r0,r0,#0x18
        0x000018f2:    f000ff99    ....    BL       __0printf$8 ; 0x2828
        0x000018f6:    1c60        `.      ADDS     r0,r4,#1
        0x000018f8:    0740        @.      LSLS     r0,r0,#29
        0x000018fa:    0f40        @.      LSRS     r0,r0,#29
        0x000018fc:    2800        .(      CMP      r0,#0
        0x000018fe:    d102        ..      BNE      0x1906 ; I2Cx_Master_example + 1282
        0x00001900:    a00b        ..      ADR      r0,{pc}+0x30 ; 0x1930
        0x00001902:    f000ff91    ....    BL       __0printf$8 ; 0x2828
        0x00001906:    1c64        d.      ADDS     r4,r4,#1
        0x00001908:    2c10        .,      CMP      r4,#0x10
        0x0000190a:    d3ee        ..      BCC      0x18ea ; I2Cx_Master_example + 1254
        0x0000190c:    4807        .H      LDR      r0,[pc,#28] ; [0x192c] = 0x189c
        0x0000190e:    3020         0      ADDS     r0,r0,#0x20
        0x00001910:    f000ff8a    ....    BL       __0printf$8 ; 0x2828
        0x00001914:    9800        ..      LDR      r0,[sp,#0]
        0x00001916:    1c41        A.      ADDS     r1,r0,#1
        0x00001918:    b2c9        ..      UXTB     r1,r1
        0x0000191a:    9100        ..      STR      r1,[sp,#0]
        0x0000191c:    2801        .(      CMP      r0,#1
        0x0000191e:    da00        ..      BGE      0x1922 ; I2Cx_Master_example + 1310
        0x00001920:    e74b        K.      B        0x17ba ; I2Cx_Master_example + 950
        0x00001922:    bf00        ..      NOP      
        0x00001924:    bf00        ..      NOP      
        0x00001926:    b00f        ..      ADD      sp,sp,#0x3c
        0x00001928:    bdf0        ..      POP      {r4-r7,pc}
    $d
        0x0000192a:    0000        ..      DCW    0
        0x0000192c:    0000189c    ....    DCD    6300
        0x00001930:    00000a0d    ....    DCD    2573
    $t
    i.I2Cx_Read_Multi_FromSlave
    I2Cx_Read_Multi_FromSlave
        0x00001934:    b530        0.      PUSH     {r4,r5,lr}
        0x00001936:    4c12        .L      LDR      r4,[pc,#72] ; [0x1980] = 0x20000040
        0x00001938:    7020         p      STRB     r0,[r4,#0]
        0x0000193a:    4d12        .M      LDR      r5,[pc,#72] ; [0x1984] = 0x20000042
        0x0000193c:    702b        +p      STRB     r3,[r5,#0]
        0x0000193e:    4c12        .L      LDR      r4,[pc,#72] ; [0x1988] = 0x20000043
        0x00001940:    7021        !p      STRB     r1,[r4,#0]
        0x00001942:    4c12        .L      LDR      r4,[pc,#72] ; [0x198c] = 0x20000048
        0x00001944:    6022        "`      STR      r2,[r4,#0]
        0x00001946:    2400        .$      MOVS     r4,#0
        0x00001948:    4d11        .M      LDR      r5,[pc,#68] ; [0x1990] = 0x20000044
        0x0000194a:    702c        ,p      STRB     r4,[r5,#0]
        0x0000194c:    4d11        .M      LDR      r5,[pc,#68] ; [0x1994] = 0x20000041
        0x0000194e:    702c        ,p      STRB     r4,[r5,#0]
        0x00001950:    4c11        .L      LDR      r4,[pc,#68] ; [0x1998] = 0xe95
        0x00001952:    4d12        .M      LDR      r5,[pc,#72] ; [0x199c] = 0x20000050
        0x00001954:    602c        ,`      STR      r4,[r5,#0]
        0x00001956:    4c12        .L      LDR      r4,[pc,#72] ; [0x19a0] = 0x40081000
        0x00001958:    6824        $h      LDR      r4,[r4,#0]
        0x0000195a:    253c        <%      MOVS     r5,#0x3c
        0x0000195c:    43ac        .C      BICS     r4,r4,r5
        0x0000195e:    3420         4      ADDS     r4,r4,#0x20
        0x00001960:    4d0f        .M      LDR      r5,[pc,#60] ; [0x19a0] = 0x40081000
        0x00001962:    602c        ,`      STR      r4,[r5,#0]
        0x00001964:    bf00        ..      NOP      
        0x00001966:    4c0a        .L      LDR      r4,[pc,#40] ; [0x1990] = 0x20000044
        0x00001968:    7824        $x      LDRB     r4,[r4,#0]
        0x0000196a:    2c00        .,      CMP      r4,#0
        0x0000196c:    d0fb        ..      BEQ      0x1966 ; I2Cx_Read_Multi_FromSlave + 50
        0x0000196e:    bf00        ..      NOP      
        0x00001970:    4c0b        .L      LDR      r4,[pc,#44] ; [0x19a0] = 0x40081000
        0x00001972:    6824        $h      LDR      r4,[r4,#0]
        0x00001974:    2510        .%      MOVS     r5,#0x10
        0x00001976:    402c        ,@      ANDS     r4,r4,r5
        0x00001978:    2c00        .,      CMP      r4,#0
        0x0000197a:    d1f9        ..      BNE      0x1970 ; I2Cx_Read_Multi_FromSlave + 60
        0x0000197c:    bd30        0.      POP      {r4,r5,pc}
    $d
        0x0000197e:    0000        ..      DCW    0
        0x00001980:    20000040    @..     DCD    536870976
        0x00001984:    20000042    B..     DCD    536870978
        0x00001988:    20000043    C..     DCD    536870979
        0x0000198c:    20000048    H..     DCD    536870984
        0x00001990:    20000044    D..     DCD    536870980
        0x00001994:    20000041    A..     DCD    536870977
        0x00001998:    00000e95    ....    DCD    3733
        0x0000199c:    20000050    P..     DCD    536870992
        0x000019a0:    40081000    ...@    DCD    1074270208
    $t
    i.I2Cx_SlaveTRx
    I2Cx_SlaveTRx
        0x000019a4:    b53e        >.      PUSH     {r1-r5,lr}
        0x000019a6:    4604        .F      MOV      r4,r0
        0x000019a8:    2100        .!      MOVS     r1,#0
        0x000019aa:    9102        ..      STR      r1,[sp,#8]
        0x000019ac:    9101        ..      STR      r1,[sp,#4]
        0x000019ae:    9100        ..      STR      r1,[sp,#0]
        0x000019b0:    2500        .%      MOVS     r5,#0
        0x000019b2:    2ca0        .,      CMP      r4,#0xa0
        0x000019b4:    d07d        }.      BEQ      0x1ab2 ; I2Cx_SlaveTRx + 270
        0x000019b6:    dc06        ..      BGT      0x19c6 ; I2Cx_SlaveTRx + 34
        0x000019b8:    2c60        `,      CMP      r4,#0x60
        0x000019ba:    d00b        ..      BEQ      0x19d4 ; I2Cx_SlaveTRx + 48
        0x000019bc:    2c80        .,      CMP      r4,#0x80
        0x000019be:    d025        %.      BEQ      0x1a0c ; I2Cx_SlaveTRx + 104
        0x000019c0:    2c88        .,      CMP      r4,#0x88
        0x000019c2:    d177        w.      BNE      0x1ab4 ; I2Cx_SlaveTRx + 272
        0x000019c4:    e0de        ..      B        0x1b84 ; I2Cx_SlaveTRx + 480
        0x000019c6:    2ca8        .,      CMP      r4,#0xa8
        0x000019c8:    d07a        z.      BEQ      0x1ac0 ; I2Cx_SlaveTRx + 284
        0x000019ca:    2cb8        .,      CMP      r4,#0xb8
        0x000019cc:    d074        t.      BEQ      0x1ab8 ; I2Cx_SlaveTRx + 276
        0x000019ce:    2cc0        .,      CMP      r4,#0xc0
        0x000019d0:    d1f7        ..      BNE      0x19c2 ; I2Cx_SlaveTRx + 30
        0x000019d2:    e0bf        ..      B        0x1b54 ; I2Cx_SlaveTRx + 432
        0x000019d4:    2000        .       MOVS     r0,#0
        0x000019d6:    498a        .I      LDR      r1,[pc,#552] ; [0x1c00] = 0x20000060
        0x000019d8:    7008        .p      STRB     r0,[r1,#0]
        0x000019da:    466a        jF      MOV      r2,sp
        0x000019dc:    4669        iF      MOV      r1,sp
        0x000019de:    4620         F      MOV      r0,r4
        0x000019e0:    f000f9a8    ....    BL       I2Cx_Slave_StateMachine ; 0x1d34
        0x000019e4:    2100        .!      MOVS     r1,#0
        0x000019e6:    4887        .H      LDR      r0,[pc,#540] ; [0x1c04] = 0x40080000
        0x000019e8:    f7fff9eb    ....    BL       I2C_EnableTimeout ; 0xdc2
        0x000019ec:    4885        .H      LDR      r0,[pc,#532] ; [0x1c04] = 0x40080000
        0x000019ee:    6800        .h      LDR      r0,[r0,#0]
        0x000019f0:    213c        <!      MOVS     r1,#0x3c
        0x000019f2:    4388        .C      BICS     r0,r0,r1
        0x000019f4:    300c        .0      ADDS     r0,r0,#0xc
        0x000019f6:    4983        .I      LDR      r1,[pc,#524] ; [0x1c04] = 0x40080000
        0x000019f8:    6008        .`      STR      r0,[r1,#0]
        0x000019fa:    b2e1        ..      UXTB     r1,r4
        0x000019fc:    2200        ."      MOVS     r2,#0
        0x000019fe:    a082        ..      ADR      r0,{pc}+0x20a ; 0x1c08
        0x00001a00:    f000ff30    ..0.    BL       __I2Cx_Slave_LogBuffer__ ; 0x2864
        0x00001a04:    4620         F      MOV      r0,r4
        0x00001a06:    f000ff2e    ....    BL       __I2Cx_Slave_Log__ ; 0x2866
        0x00001a0a:    e0f6        ..      B        0x1bfa ; I2Cx_SlaveTRx + 598
        0x00001a0c:    487d        }H      LDR      r0,[pc,#500] ; [0x1c04] = 0x40080000
        0x00001a0e:    6880        .h      LDR      r0,[r0,#8]
        0x00001a10:    b2c0        ..      UXTB     r0,r0
        0x00001a12:    9002        ..      STR      r0,[sp,#8]
        0x00001a14:    487a        zH      LDR      r0,[pc,#488] ; [0x1c00] = 0x20000060
        0x00001a16:    7800        .x      LDRB     r0,[r0,#0]
        0x00001a18:    1c40        @.      ADDS     r0,r0,#1
        0x00001a1a:    4979        yI      LDR      r1,[pc,#484] ; [0x1c00] = 0x20000060
        0x00001a1c:    7008        .p      STRB     r0,[r1,#0]
        0x00001a1e:    4608        .F      MOV      r0,r1
        0x00001a20:    7800        .x      LDRB     r0,[r0,#0]
        0x00001a22:    2801        .(      CMP      r0,#1
        0x00001a24:    d126        &.      BNE      0x1a74 ; I2Cx_SlaveTRx + 208
        0x00001a26:    4668        hF      MOV      r0,sp
        0x00001a28:    7a00        .z      LDRB     r0,[r0,#8]
        0x00001a2a:    4978        xI      LDR      r1,[pc,#480] ; [0x1c0c] = 0x2000005c
        0x00001a2c:    6008        .`      STR      r0,[r1,#0]
        0x00001a2e:    466a        jF      MOV      r2,sp
        0x00001a30:    a902        ..      ADD      r1,sp,#8
        0x00001a32:    4620         F      MOV      r0,r4
        0x00001a34:    f000f97e    ..~.    BL       I2Cx_Slave_StateMachine ; 0x1d34
        0x00001a38:    4668        hF      MOV      r0,sp
        0x00001a3a:    7a02        .z      LDRB     r2,[r0,#8]
        0x00001a3c:    4870        pH      LDR      r0,[pc,#448] ; [0x1c00] = 0x20000060
        0x00001a3e:    7801        .x      LDRB     r1,[r0,#0]
        0x00001a40:    a073        s.      ADR      r0,{pc}+0x1d0 ; 0x1c10
        0x00001a42:    f000ff0f    ....    BL       __I2Cx_Slave_LogBuffer__ ; 0x2864
        0x00001a46:    4875        uH      LDR      r0,[pc,#468] ; [0x1c1c] = 0x20000063
        0x00001a48:    7800        .x      LDRB     r0,[r0,#0]
        0x00001a4a:    287a        z(      CMP      r0,#0x7a
        0x00001a4c:    d107        ..      BNE      0x1a5e ; I2Cx_SlaveTRx + 186
        0x00001a4e:    486d        mH      LDR      r0,[pc,#436] ; [0x1c04] = 0x40080000
        0x00001a50:    6800        .h      LDR      r0,[r0,#0]
        0x00001a52:    213c        <!      MOVS     r1,#0x3c
        0x00001a54:    4388        .C      BICS     r0,r0,r1
        0x00001a56:    3008        .0      ADDS     r0,r0,#8
        0x00001a58:    496a        jI      LDR      r1,[pc,#424] ; [0x1c04] = 0x40080000
        0x00001a5a:    6008        .`      STR      r0,[r1,#0]
        0x00001a5c:    bd3e        >.      POP      {r1-r5,pc}
        0x00001a5e:    4869        iH      LDR      r0,[pc,#420] ; [0x1c04] = 0x40080000
        0x00001a60:    6800        .h      LDR      r0,[r0,#0]
        0x00001a62:    213c        <!      MOVS     r1,#0x3c
        0x00001a64:    4388        .C      BICS     r0,r0,r1
        0x00001a66:    300c        .0      ADDS     r0,r0,#0xc
        0x00001a68:    4966        fI      LDR      r1,[pc,#408] ; [0x1c04] = 0x40080000
        0x00001a6a:    6008        .`      STR      r0,[r1,#0]
        0x00001a6c:    4620         F      MOV      r0,r4
        0x00001a6e:    f000fefa    ....    BL       __I2Cx_Slave_Log__ ; 0x2866
        0x00001a72:    e024        $.      B        0x1abe ; I2Cx_SlaveTRx + 282
        0x00001a74:    4862        bH      LDR      r0,[pc,#392] ; [0x1c00] = 0x20000060
        0x00001a76:    7800        .x      LDRB     r0,[r0,#0]
        0x00001a78:    1e80        ..      SUBS     r0,r0,#2
        0x00001a7a:    4964        dI      LDR      r1,[pc,#400] ; [0x1c0c] = 0x2000005c
        0x00001a7c:    8809        ..      LDRH     r1,[r1,#0]
        0x00001a7e:    1840        @.      ADDS     r0,r0,r1
        0x00001a80:    b285        ..      UXTH     r5,r0
        0x00001a82:    4668        hF      MOV      r0,sp
        0x00001a84:    7a00        .z      LDRB     r0,[r0,#8]
        0x00001a86:    4966        fI      LDR      r1,[pc,#408] ; [0x1c20] = 0x20000088
        0x00001a88:    5548        HU      STRB     r0,[r1,r5]
        0x00001a8a:    466a        jF      MOV      r2,sp
        0x00001a8c:    a902        ..      ADD      r1,sp,#8
        0x00001a8e:    4620         F      MOV      r0,r4
        0x00001a90:    f000f950    ..P.    BL       I2Cx_Slave_StateMachine ; 0x1d34
        0x00001a94:    485b        [H      LDR      r0,[pc,#364] ; [0x1c04] = 0x40080000
        0x00001a96:    6800        .h      LDR      r0,[r0,#0]
        0x00001a98:    213c        <!      MOVS     r1,#0x3c
        0x00001a9a:    4388        .C      BICS     r0,r0,r1
        0x00001a9c:    300c        .0      ADDS     r0,r0,#0xc
        0x00001a9e:    4959        YI      LDR      r1,[pc,#356] ; [0x1c04] = 0x40080000
        0x00001aa0:    6008        .`      STR      r0,[r1,#0]
        0x00001aa2:    b2e9        ..      UXTB     r1,r5
        0x00001aa4:    4668        hF      MOV      r0,sp
        0x00001aa6:    7a02        .z      LDRB     r2,[r0,#8]
        0x00001aa8:    a05e        ^.      ADR      r0,{pc}+0x17c ; 0x1c24
        0x00001aaa:    f000fedb    ....    BL       __I2Cx_Slave_LogBuffer__ ; 0x2864
        0x00001aae:    4620         F      MOV      r0,r4
        0x00001ab0:    e003        ..      B        0x1aba ; I2Cx_SlaveTRx + 278
        0x00001ab2:    e07b        {.      B        0x1bac ; I2Cx_SlaveTRx + 520
        0x00001ab4:    e095        ..      B        0x1be2 ; I2Cx_SlaveTRx + 574
        0x00001ab6:    e003        ..      B        0x1ac0 ; I2Cx_SlaveTRx + 284
        0x00001ab8:    e029        ).      B        0x1b0e ; I2Cx_SlaveTRx + 362
        0x00001aba:    f000fed4    ....    BL       __I2Cx_Slave_Log__ ; 0x2866
        0x00001abe:    e09c        ..      B        0x1bfa ; I2Cx_SlaveTRx + 598
        0x00001ac0:    2100        .!      MOVS     r1,#0
        0x00001ac2:    4850        PH      LDR      r0,[pc,#320] ; [0x1c04] = 0x40080000
        0x00001ac4:    f7fff97d    ..}.    BL       I2C_EnableTimeout ; 0xdc2
        0x00001ac8:    4850        PH      LDR      r0,[pc,#320] ; [0x1c0c] = 0x2000005c
        0x00001aca:    6801        .h      LDR      r1,[r0,#0]
        0x00001acc:    6800        .h      LDR      r0,[r0,#0]
        0x00001ace:    1c40        @.      ADDS     r0,r0,#1
        0x00001ad0:    4a4e        NJ      LDR      r2,[pc,#312] ; [0x1c0c] = 0x2000005c
        0x00001ad2:    6010        .`      STR      r0,[r2,#0]
        0x00001ad4:    4852        RH      LDR      r0,[pc,#328] ; [0x1c20] = 0x20000088
        0x00001ad6:    5c41        A\      LDRB     r1,[r0,r1]
        0x00001ad8:    9102        ..      STR      r1,[sp,#8]
        0x00001ada:    aa01        ..      ADD      r2,sp,#4
        0x00001adc:    a902        ..      ADD      r1,sp,#8
        0x00001ade:    4620         F      MOV      r0,r4
        0x00001ae0:    f000f928    ..(.    BL       I2Cx_Slave_StateMachine ; 0x1d34
        0x00001ae4:    4668        hF      MOV      r0,sp
        0x00001ae6:    7900        .y      LDRB     r0,[r0,#4]
        0x00001ae8:    4946        FI      LDR      r1,[pc,#280] ; [0x1c04] = 0x40080000
        0x00001aea:    6088        .`      STR      r0,[r1,#8]
        0x00001aec:    4608        .F      MOV      r0,r1
        0x00001aee:    6800        .h      LDR      r0,[r0,#0]
        0x00001af0:    213c        <!      MOVS     r1,#0x3c
        0x00001af2:    4388        .C      BICS     r0,r0,r1
        0x00001af4:    300c        .0      ADDS     r0,r0,#0xc
        0x00001af6:    4943        CI      LDR      r1,[pc,#268] ; [0x1c04] = 0x40080000
        0x00001af8:    6008        .`      STR      r0,[r1,#0]
        0x00001afa:    b2e1        ..      UXTB     r1,r4
        0x00001afc:    4668        hF      MOV      r0,sp
        0x00001afe:    7902        .y      LDRB     r2,[r0,#4]
        0x00001b00:    a04b        K.      ADR      r0,{pc}+0x130 ; 0x1c30
        0x00001b02:    f000feaf    ....    BL       __I2Cx_Slave_LogBuffer__ ; 0x2864
        0x00001b06:    4620         F      MOV      r0,r4
        0x00001b08:    f000fead    ....    BL       __I2Cx_Slave_Log__ ; 0x2866
        0x00001b0c:    e075        u.      B        0x1bfa ; I2Cx_SlaveTRx + 598
        0x00001b0e:    483f        ?H      LDR      r0,[pc,#252] ; [0x1c0c] = 0x2000005c
        0x00001b10:    6801        .h      LDR      r1,[r0,#0]
        0x00001b12:    6800        .h      LDR      r0,[r0,#0]
        0x00001b14:    1c40        @.      ADDS     r0,r0,#1
        0x00001b16:    4a3d        =J      LDR      r2,[pc,#244] ; [0x1c0c] = 0x2000005c
        0x00001b18:    6010        .`      STR      r0,[r2,#0]
        0x00001b1a:    4841        AH      LDR      r0,[pc,#260] ; [0x1c20] = 0x20000088
        0x00001b1c:    5c41        A\      LDRB     r1,[r0,r1]
        0x00001b1e:    9102        ..      STR      r1,[sp,#8]
        0x00001b20:    aa01        ..      ADD      r2,sp,#4
        0x00001b22:    a902        ..      ADD      r1,sp,#8
        0x00001b24:    4620         F      MOV      r0,r4
        0x00001b26:    f000f905    ....    BL       I2Cx_Slave_StateMachine ; 0x1d34
        0x00001b2a:    4668        hF      MOV      r0,sp
        0x00001b2c:    7900        .y      LDRB     r0,[r0,#4]
        0x00001b2e:    4935        5I      LDR      r1,[pc,#212] ; [0x1c04] = 0x40080000
        0x00001b30:    6088        .`      STR      r0,[r1,#8]
        0x00001b32:    4608        .F      MOV      r0,r1
        0x00001b34:    6800        .h      LDR      r0,[r0,#0]
        0x00001b36:    213c        <!      MOVS     r1,#0x3c
        0x00001b38:    4388        .C      BICS     r0,r0,r1
        0x00001b3a:    300c        .0      ADDS     r0,r0,#0xc
        0x00001b3c:    4931        1I      LDR      r1,[pc,#196] ; [0x1c04] = 0x40080000
        0x00001b3e:    6008        .`      STR      r0,[r1,#0]
        0x00001b40:    b2e1        ..      UXTB     r1,r4
        0x00001b42:    4668        hF      MOV      r0,sp
        0x00001b44:    7902        .y      LDRB     r2,[r0,#4]
        0x00001b46:    a03d        =.      ADR      r0,{pc}+0xf6 ; 0x1c3c
        0x00001b48:    f000fe8c    ....    BL       __I2Cx_Slave_LogBuffer__ ; 0x2864
        0x00001b4c:    4620         F      MOV      r0,r4
        0x00001b4e:    f000fe8a    ....    BL       __I2Cx_Slave_Log__ ; 0x2866
        0x00001b52:    e052        R.      B        0x1bfa ; I2Cx_SlaveTRx + 598
        0x00001b54:    466a        jF      MOV      r2,sp
        0x00001b56:    4669        iF      MOV      r1,sp
        0x00001b58:    4620         F      MOV      r0,r4
        0x00001b5a:    f000f8eb    ....    BL       I2Cx_Slave_StateMachine ; 0x1d34
        0x00001b5e:    4829        )H      LDR      r0,[pc,#164] ; [0x1c04] = 0x40080000
        0x00001b60:    f7fff925    ..%.    BL       I2C_DisableTimeout ; 0xdae
        0x00001b64:    4827        'H      LDR      r0,[pc,#156] ; [0x1c04] = 0x40080000
        0x00001b66:    6800        .h      LDR      r0,[r0,#0]
        0x00001b68:    213c        <!      MOVS     r1,#0x3c
        0x00001b6a:    4388        .C      BICS     r0,r0,r1
        0x00001b6c:    300c        .0      ADDS     r0,r0,#0xc
        0x00001b6e:    4925        %I      LDR      r1,[pc,#148] ; [0x1c04] = 0x40080000
        0x00001b70:    6008        .`      STR      r0,[r1,#0]
        0x00001b72:    b2e1        ..      UXTB     r1,r4
        0x00001b74:    2200        ."      MOVS     r2,#0
        0x00001b76:    a024        $.      ADR      r0,{pc}+0x92 ; 0x1c08
        0x00001b78:    f000fe74    ..t.    BL       __I2Cx_Slave_LogBuffer__ ; 0x2864
        0x00001b7c:    4620         F      MOV      r0,r4
        0x00001b7e:    f000fe72    ..r.    BL       __I2Cx_Slave_Log__ ; 0x2866
        0x00001b82:    e03a        :.      B        0x1bfa ; I2Cx_SlaveTRx + 598
        0x00001b84:    2000        .       MOVS     r0,#0
        0x00001b86:    491e        .I      LDR      r1,[pc,#120] ; [0x1c00] = 0x20000060
        0x00001b88:    7008        .p      STRB     r0,[r1,#0]
        0x00001b8a:    481e        .H      LDR      r0,[pc,#120] ; [0x1c04] = 0x40080000
        0x00001b8c:    6800        .h      LDR      r0,[r0,#0]
        0x00001b8e:    213c        <!      MOVS     r1,#0x3c
        0x00001b90:    4388        .C      BICS     r0,r0,r1
        0x00001b92:    300c        .0      ADDS     r0,r0,#0xc
        0x00001b94:    491b        .I      LDR      r1,[pc,#108] ; [0x1c04] = 0x40080000
        0x00001b96:    6008        .`      STR      r0,[r1,#0]
        0x00001b98:    b2e1        ..      UXTB     r1,r4
        0x00001b9a:    4668        hF      MOV      r0,sp
        0x00001b9c:    7802        .x      LDRB     r2,[r0,#0]
        0x00001b9e:    a01a        ..      ADR      r0,{pc}+0x6a ; 0x1c08
        0x00001ba0:    f000fe60    ..`.    BL       __I2Cx_Slave_LogBuffer__ ; 0x2864
        0x00001ba4:    4620         F      MOV      r0,r4
        0x00001ba6:    f000fe5e    ..^.    BL       __I2Cx_Slave_Log__ ; 0x2866
        0x00001baa:    e026        &.      B        0x1bfa ; I2Cx_SlaveTRx + 598
        0x00001bac:    2000        .       MOVS     r0,#0
        0x00001bae:    4914        .I      LDR      r1,[pc,#80] ; [0x1c00] = 0x20000060
        0x00001bb0:    7008        .p      STRB     r0,[r1,#0]
        0x00001bb2:    466a        jF      MOV      r2,sp
        0x00001bb4:    4669        iF      MOV      r1,sp
        0x00001bb6:    4620         F      MOV      r0,r4
        0x00001bb8:    f000f8bc    ....    BL       I2Cx_Slave_StateMachine ; 0x1d34
        0x00001bbc:    4811        .H      LDR      r0,[pc,#68] ; [0x1c04] = 0x40080000
        0x00001bbe:    f7fff8f6    ....    BL       I2C_DisableTimeout ; 0xdae
        0x00001bc2:    4810        .H      LDR      r0,[pc,#64] ; [0x1c04] = 0x40080000
        0x00001bc4:    6800        .h      LDR      r0,[r0,#0]
        0x00001bc6:    213c        <!      MOVS     r1,#0x3c
        0x00001bc8:    4388        .C      BICS     r0,r0,r1
        0x00001bca:    300c        .0      ADDS     r0,r0,#0xc
        0x00001bcc:    490d        .I      LDR      r1,[pc,#52] ; [0x1c04] = 0x40080000
        0x00001bce:    6008        .`      STR      r0,[r1,#0]
        0x00001bd0:    b2e1        ..      UXTB     r1,r4
        0x00001bd2:    2200        ."      MOVS     r2,#0
        0x00001bd4:    a00c        ..      ADR      r0,{pc}+0x34 ; 0x1c08
        0x00001bd6:    f000fe45    ..E.    BL       __I2Cx_Slave_LogBuffer__ ; 0x2864
        0x00001bda:    4620         F      MOV      r0,r4
        0x00001bdc:    f000fe43    ..C.    BL       __I2Cx_Slave_Log__ ; 0x2866
        0x00001be0:    e00b        ..      B        0x1bfa ; I2Cx_SlaveTRx + 598
        0x00001be2:    4808        .H      LDR      r0,[pc,#32] ; [0x1c04] = 0x40080000
        0x00001be4:    6800        .h      LDR      r0,[r0,#0]
        0x00001be6:    213c        <!      MOVS     r1,#0x3c
        0x00001be8:    4388        .C      BICS     r0,r0,r1
        0x00001bea:    300c        .0      ADDS     r0,r0,#0xc
        0x00001bec:    4905        .I      LDR      r1,[pc,#20] ; [0x1c04] = 0x40080000
        0x00001bee:    6008        .`      STR      r0,[r1,#0]
        0x00001bf0:    4621        !F      MOV      r1,r4
        0x00001bf2:    a015        ..      ADR      r0,{pc}+0x56 ; 0x1c48
        0x00001bf4:    f000fe18    ....    BL       __0printf$8 ; 0x2828
        0x00001bf8:    bf00        ..      NOP      
        0x00001bfa:    bf00        ..      NOP      
        0x00001bfc:    bf00        ..      NOP      
        0x00001bfe:    e72d        -.      B        0x1a5c ; I2Cx_SlaveTRx + 184
    $d
        0x00001c00:    20000060    `..     DCD    536871008
        0x00001c04:    40080000    ...@    DCD    1074266112
        0x00001c08:    00000000    ....    DCD    0
        0x00001c0c:    2000005c    \..     DCD    536871004
        0x00001c10:    6765725b    [reg    DCD    1734701659
        0x00001c14:    65747369    iste    DCD    1702130537
        0x00001c18:    00005d72    r]..    DCD    23922
        0x00001c1c:    20000063    c..     DCD    536871011
        0x00001c20:    20000088    ...     DCD    536871048
        0x00001c24:    2078725b    [rx     DCD    544764507
        0x00001c28:    61746164    data    DCD    1635017060
        0x00001c2c:    0000005d    ]...    DCD    93
        0x00001c30:    2078745b    [tx     DCD    544765019
        0x00001c34:    61746164    data    DCD    1635017060
        0x00001c38:    00005d31    1]..    DCD    23857
        0x00001c3c:    2078745b    [tx     DCD    544765019
        0x00001c40:    61746164    data    DCD    1635017060
        0x00001c44:    00005d32    2]..    DCD    23858
        0x00001c48:    78433249    I2Cx    DCD    2017669705
        0x00001c4c:    616c535f    _Sla    DCD    1634489183
        0x00001c50:    52546576    veTR    DCD    1381262710
        0x00001c54:    74532078    x St    DCD    1951604856
        0x00001c58:    73757461    atus    DCD    1937077345
        0x00001c5c:    25783020     0x%    DCD    628633632
        0x00001c60:    73692078    x is    DCD    1936269432
        0x00001c64:    544f4e20     NOT    DCD    1414483488
        0x00001c68:    6f727020     pro    DCD    1869770784
        0x00001c6c:    73736563    cess    DCD    1936942435
        0x00001c70:    000a6465    ed..    DCD    681061
    $t
    i.I2Cx_Slave_Init
    I2Cx_Slave_Init
        0x00001c74:    b510        ..      PUSH     {r4,lr}
        0x00001c76:    4915        .I      LDR      r1,[pc,#84] ; [0x1ccc] = 0x186a0
        0x00001c78:    4815        .H      LDR      r0,[pc,#84] ; [0x1cd0] = 0x40080000
        0x00001c7a:    f7fff8b7    ....    BL       I2C_Open ; 0xdec
        0x00001c7e:    2300        .#      MOVS     r3,#0
        0x00001c80:    2215        ."      MOVS     r2,#0x15
        0x00001c82:    4619        .F      MOV      r1,r3
        0x00001c84:    4812        .H      LDR      r0,[pc,#72] ; [0x1cd0] = 0x40080000
        0x00001c86:    f7fff8e7    ....    BL       I2C_SetSlaveAddr ; 0xe58
        0x00001c8a:    4811        .H      LDR      r0,[pc,#68] ; [0x1cd0] = 0x40080000
        0x00001c8c:    f7fff894    ....    BL       I2C_EnableInt ; 0xdb8
        0x00001c90:    2012        .       MOVS     r0,#0x12
        0x00001c92:    2800        .(      CMP      r0,#0
        0x00001c94:    db05        ..      BLT      0x1ca2 ; I2Cx_Slave_Init + 46
        0x00001c96:    06c2        ..      LSLS     r2,r0,#27
        0x00001c98:    0ed2        ..      LSRS     r2,r2,#27
        0x00001c9a:    2101        .!      MOVS     r1,#1
        0x00001c9c:    4091        .@      LSLS     r1,r1,r2
        0x00001c9e:    4a0d        .J      LDR      r2,[pc,#52] ; [0x1cd4] = 0xe000e100
        0x00001ca0:    6011        .`      STR      r1,[r2,#0]
        0x00001ca2:    bf00        ..      NOP      
        0x00001ca4:    480a        .H      LDR      r0,[pc,#40] ; [0x1cd0] = 0x40080000
        0x00001ca6:    6800        .h      LDR      r0,[r0,#0]
        0x00001ca8:    213c        <!      MOVS     r1,#0x3c
        0x00001caa:    4388        .C      BICS     r0,r0,r1
        0x00001cac:    300c        .0      ADDS     r0,r0,#0xc
        0x00001cae:    4908        .I      LDR      r1,[pc,#32] ; [0x1cd0] = 0x40080000
        0x00001cb0:    6008        .`      STR      r0,[r1,#0]
        0x00001cb2:    2400        .$      MOVS     r4,#0
        0x00001cb4:    e003        ..      B        0x1cbe ; I2Cx_Slave_Init + 74
        0x00001cb6:    2000        .       MOVS     r0,#0
        0x00001cb8:    4907        .I      LDR      r1,[pc,#28] ; [0x1cd8] = 0x20000088
        0x00001cba:    5508        .U      STRB     r0,[r1,r4]
        0x00001cbc:    1c64        d.      ADDS     r4,r4,#1
        0x00001cbe:    2cff        .,      CMP      r4,#0xff
        0x00001cc0:    d9f9        ..      BLS      0x1cb6 ; I2Cx_Slave_Init + 66
        0x00001cc2:    4806        .H      LDR      r0,[pc,#24] ; [0x1cdc] = 0x19a5
        0x00001cc4:    4906        .I      LDR      r1,[pc,#24] ; [0x1ce0] = 0x20000068
        0x00001cc6:    6008        .`      STR      r0,[r1,#0]
        0x00001cc8:    bd10        ..      POP      {r4,pc}
    $d
        0x00001cca:    0000        ..      DCW    0
        0x00001ccc:    000186a0    ....    DCD    100000
        0x00001cd0:    40080000    ...@    DCD    1074266112
        0x00001cd4:    e000e100    ....    DCD    3758153984
        0x00001cd8:    20000088    ...     DCD    536871048
        0x00001cdc:    000019a5    ....    DCD    6565
        0x00001ce0:    20000068    h..     DCD    536871016
    $t
    i.I2Cx_Slave_ReturnTx
    I2Cx_Slave_ReturnTx
        0x00001ce4:    2000        .       MOVS     r0,#0
        0x00001ce6:    bf00        ..      NOP      
        0x00001ce8:    e004        ..      B        0x1cf4 ; I2Cx_Slave_ReturnTx + 16
        0x00001cea:    2100        .!      MOVS     r1,#0
        0x00001cec:    4a0c        .J      LDR      r2,[pc,#48] ; [0x1d20] = 0x20000188
        0x00001cee:    5411        .T      STRB     r1,[r2,r0]
        0x00001cf0:    1c41        A.      ADDS     r1,r0,#1
        0x00001cf2:    b2c8        ..      UXTB     r0,r1
        0x00001cf4:    2840        @(      CMP      r0,#0x40
        0x00001cf6:    dbf8        ..      BLT      0x1cea ; I2Cx_Slave_ReturnTx + 6
        0x00001cf8:    2000        .       MOVS     r0,#0
        0x00001cfa:    e005        ..      B        0x1d08 ; I2Cx_Slave_ReturnTx + 36
        0x00001cfc:    4909        .I      LDR      r1,[pc,#36] ; [0x1d24] = 0x200001c8
        0x00001cfe:    5c09        .\      LDRB     r1,[r1,r0]
        0x00001d00:    4a07        .J      LDR      r2,[pc,#28] ; [0x1d20] = 0x20000188
        0x00001d02:    5411        .T      STRB     r1,[r2,r0]
        0x00001d04:    1c41        A.      ADDS     r1,r0,#1
        0x00001d06:    b2c8        ..      UXTB     r0,r1
        0x00001d08:    4907        .I      LDR      r1,[pc,#28] ; [0x1d28] = 0x20000064
        0x00001d0a:    7809        .x      LDRB     r1,[r1,#0]
        0x00001d0c:    4288        .B      CMP      r0,r1
        0x00001d0e:    dbf5        ..      BLT      0x1cfc ; I2Cx_Slave_ReturnTx + 24
        0x00001d10:    2100        .!      MOVS     r1,#0
        0x00001d12:    4a06        .J      LDR      r2,[pc,#24] ; [0x1d2c] = 0x20000062
        0x00001d14:    7011        .p      STRB     r1,[r2,#0]
        0x00001d16:    4a06        .J      LDR      r2,[pc,#24] ; [0x1d30] = 0x20000061
        0x00001d18:    7011        .p      STRB     r1,[r2,#0]
        0x00001d1a:    4a03        .J      LDR      r2,[pc,#12] ; [0x1d28] = 0x20000064
        0x00001d1c:    7011        .p      STRB     r1,[r2,#0]
        0x00001d1e:    4770        pG      BX       lr
    $d
        0x00001d20:    20000188    ...     DCD    536871304
        0x00001d24:    200001c8    ...     DCD    536871368
        0x00001d28:    20000064    d..     DCD    536871012
        0x00001d2c:    20000062    b..     DCD    536871010
        0x00001d30:    20000061    a..     DCD    536871009
    $t
    i.I2Cx_Slave_StateMachine
    I2Cx_Slave_StateMachine
        0x00001d34:    b570        p.      PUSH     {r4-r6,lr}
        0x00001d36:    4603        .F      MOV      r3,r0
        0x00001d38:    460c        .F      MOV      r4,r1
        0x00001d3a:    4615        .F      MOV      r5,r2
        0x00001d3c:    2b60        `+      CMP      r3,#0x60
        0x00001d3e:    d109        ..      BNE      0x1d54 ; I2Cx_Slave_StateMachine + 32
        0x00001d40:    2001        .       MOVS     r0,#1
        0x00001d42:    4955        UI      LDR      r1,[pc,#340] ; [0x1e98] = 0x2000006c
        0x00001d44:    7008        .p      STRB     r0,[r1,#0]
        0x00001d46:    2000        .       MOVS     r0,#0
        0x00001d48:    4954        TI      LDR      r1,[pc,#336] ; [0x1e9c] = 0x20000063
        0x00001d4a:    7008        .p      STRB     r0,[r1,#0]
        0x00001d4c:    4954        TI      LDR      r1,[pc,#336] ; [0x1ea0] = 0x20000062
        0x00001d4e:    7008        .p      STRB     r0,[r1,#0]
        0x00001d50:    4954        TI      LDR      r1,[pc,#336] ; [0x1ea4] = 0x20000061
        0x00001d52:    7008        .p      STRB     r0,[r1,#0]
        0x00001d54:    4850        PH      LDR      r0,[pc,#320] ; [0x1e98] = 0x2000006c
        0x00001d56:    7800        .x      LDRB     r0,[r0,#0]
        0x00001d58:    2801        .(      CMP      r0,#1
        0x00001d5a:    d006        ..      BEQ      0x1d6a ; I2Cx_Slave_StateMachine + 54
        0x00001d5c:    2802        .(      CMP      r0,#2
        0x00001d5e:    d025        %.      BEQ      0x1dac ; I2Cx_Slave_StateMachine + 120
        0x00001d60:    2803        .(      CMP      r0,#3
        0x00001d62:    d04d        M.      BEQ      0x1e00 ; I2Cx_Slave_StateMachine + 204
        0x00001d64:    2804        .(      CMP      r0,#4
        0x00001d66:    d120         .      BNE      0x1daa ; I2Cx_Slave_StateMachine + 118
        0x00001d68:    e06d        m.      B        0x1e46 ; I2Cx_Slave_StateMachine + 274
        0x00001d6a:    2b80        .+      CMP      r3,#0x80
        0x00001d6c:    d113        ..      BNE      0x1d96 ; I2Cx_Slave_StateMachine + 98
        0x00001d6e:    484e        NH      LDR      r0,[pc,#312] ; [0x1ea8] = 0x20000060
        0x00001d70:    7800        .x      LDRB     r0,[r0,#0]
        0x00001d72:    2801        .(      CMP      r0,#1
        0x00001d74:    d10b        ..      BNE      0x1d8e ; I2Cx_Slave_StateMachine + 90
        0x00001d76:    484d        MH      LDR      r0,[pc,#308] ; [0x1eac] = 0x2000005c
        0x00001d78:    7800        .x      LDRB     r0,[r0,#0]
        0x00001d7a:    4948        HI      LDR      r1,[pc,#288] ; [0x1e9c] = 0x20000063
        0x00001d7c:    7008        .p      STRB     r0,[r1,#0]
        0x00001d7e:    4608        .F      MOV      r0,r1
        0x00001d80:    7800        .x      LDRB     r0,[r0,#0]
        0x00001d82:    287a        z(      CMP      r0,#0x7a
        0x00001d84:    d103        ..      BNE      0x1d8e ; I2Cx_Slave_StateMachine + 90
        0x00001d86:    2000        .       MOVS     r0,#0
        0x00001d88:    4943        CI      LDR      r1,[pc,#268] ; [0x1e98] = 0x2000006c
        0x00001d8a:    7008        .p      STRB     r0,[r1,#0]
        0x00001d8c:    bd70        p.      POP      {r4-r6,pc}
        0x00001d8e:    2002        .       MOVS     r0,#2
        0x00001d90:    4941        AI      LDR      r1,[pc,#260] ; [0x1e98] = 0x2000006c
        0x00001d92:    7008        .p      STRB     r0,[r1,#0]
        0x00001d94:    e004        ..      B        0x1da0 ; I2Cx_Slave_StateMachine + 108
        0x00001d96:    2b88        .+      CMP      r3,#0x88
        0x00001d98:    d102        ..      BNE      0x1da0 ; I2Cx_Slave_StateMachine + 108
        0x00001d9a:    2000        .       MOVS     r0,#0
        0x00001d9c:    493e        >I      LDR      r1,[pc,#248] ; [0x1e98] = 0x2000006c
        0x00001d9e:    7008        .p      STRB     r0,[r1,#0]
        0x00001da0:    b2d8        ..      UXTB     r0,r3
        0x00001da2:    493d        =I      LDR      r1,[pc,#244] ; [0x1e98] = 0x2000006c
        0x00001da4:    7809        .x      LDRB     r1,[r1,#0]
        0x00001da6:    f000fd5f    .._.    BL       __I2Cx_Slave_StateMachine_Log__ ; 0x2868
        0x00001daa:    e071        q.      B        0x1e90 ; I2Cx_Slave_StateMachine + 348
        0x00001dac:    2b80        .+      CMP      r3,#0x80
        0x00001dae:    d114        ..      BNE      0x1dda ; I2Cx_Slave_StateMachine + 166
        0x00001db0:    483a        :H      LDR      r0,[pc,#232] ; [0x1e9c] = 0x20000063
        0x00001db2:    7800        .x      LDRB     r0,[r0,#0]
        0x00001db4:    287a        z(      CMP      r0,#0x7a
        0x00001db6:    d103        ..      BNE      0x1dc0 ; I2Cx_Slave_StateMachine + 140
        0x00001db8:    2000        .       MOVS     r0,#0
        0x00001dba:    4937        7I      LDR      r1,[pc,#220] ; [0x1e98] = 0x2000006c
        0x00001dbc:    7008        .p      STRB     r0,[r1,#0]
        0x00001dbe:    e7e5        ..      B        0x1d8c ; I2Cx_Slave_StateMachine + 88
        0x00001dc0:    7821        !x      LDRB     r1,[r4,#0]
        0x00001dc2:    4837        7H      LDR      r0,[pc,#220] ; [0x1ea0] = 0x20000062
        0x00001dc4:    7802        .x      LDRB     r2,[r0,#0]
        0x00001dc6:    7800        .x      LDRB     r0,[r0,#0]
        0x00001dc8:    1c40        @.      ADDS     r0,r0,#1
        0x00001dca:    4e35        5N      LDR      r6,[pc,#212] ; [0x1ea0] = 0x20000062
        0x00001dcc:    7030        0p      STRB     r0,[r6,#0]
        0x00001dce:    4838        8H      LDR      r0,[pc,#224] ; [0x1eb0] = 0x200001c8
        0x00001dd0:    5481        .T      STRB     r1,[r0,r2]
        0x00001dd2:    2003        .       MOVS     r0,#3
        0x00001dd4:    4930        0I      LDR      r1,[pc,#192] ; [0x1e98] = 0x2000006c
        0x00001dd6:    7008        .p      STRB     r0,[r1,#0]
        0x00001dd8:    e00c        ..      B        0x1df4 ; I2Cx_Slave_StateMachine + 192
        0x00001dda:    2ba0        .+      CMP      r3,#0xa0
        0x00001ddc:    d10a        ..      BNE      0x1df4 ; I2Cx_Slave_StateMachine + 192
        0x00001dde:    482f        /H      LDR      r0,[pc,#188] ; [0x1e9c] = 0x20000063
        0x00001de0:    7800        .x      LDRB     r0,[r0,#0]
        0x00001de2:    287a        z(      CMP      r0,#0x7a
        0x00001de4:    d103        ..      BNE      0x1dee ; I2Cx_Slave_StateMachine + 186
        0x00001de6:    2000        .       MOVS     r0,#0
        0x00001de8:    492b        +I      LDR      r1,[pc,#172] ; [0x1e98] = 0x2000006c
        0x00001dea:    7008        .p      STRB     r0,[r1,#0]
        0x00001dec:    e7ce        ..      B        0x1d8c ; I2Cx_Slave_StateMachine + 88
        0x00001dee:    2004        .       MOVS     r0,#4
        0x00001df0:    4929        )I      LDR      r1,[pc,#164] ; [0x1e98] = 0x2000006c
        0x00001df2:    7008        .p      STRB     r0,[r1,#0]
        0x00001df4:    b2d8        ..      UXTB     r0,r3
        0x00001df6:    4928        (I      LDR      r1,[pc,#160] ; [0x1e98] = 0x2000006c
        0x00001df8:    7809        .x      LDRB     r1,[r1,#0]
        0x00001dfa:    f000fd35    ..5.    BL       __I2Cx_Slave_StateMachine_Log__ ; 0x2868
        0x00001dfe:    e047        G.      B        0x1e90 ; I2Cx_Slave_StateMachine + 348
        0x00001e00:    2ba0        .+      CMP      r3,#0xa0
        0x00001e02:    d10f        ..      BNE      0x1e24 ; I2Cx_Slave_StateMachine + 240
        0x00001e04:    4825        %H      LDR      r0,[pc,#148] ; [0x1e9c] = 0x20000063
        0x00001e06:    7800        .x      LDRB     r0,[r0,#0]
        0x00001e08:    287a        z(      CMP      r0,#0x7a
        0x00001e0a:    d103        ..      BNE      0x1e14 ; I2Cx_Slave_StateMachine + 224
        0x00001e0c:    2000        .       MOVS     r0,#0
        0x00001e0e:    4922        "I      LDR      r1,[pc,#136] ; [0x1e98] = 0x2000006c
        0x00001e10:    7008        .p      STRB     r0,[r1,#0]
        0x00001e12:    e7bb        ..      B        0x1d8c ; I2Cx_Slave_StateMachine + 88
        0x00001e14:    4822        "H      LDR      r0,[pc,#136] ; [0x1ea0] = 0x20000062
        0x00001e16:    7800        .x      LDRB     r0,[r0,#0]
        0x00001e18:    4926        &I      LDR      r1,[pc,#152] ; [0x1eb4] = 0x20000064
        0x00001e1a:    7008        .p      STRB     r0,[r1,#0]
        0x00001e1c:    2004        .       MOVS     r0,#4
        0x00001e1e:    491e        .I      LDR      r1,[pc,#120] ; [0x1e98] = 0x2000006c
        0x00001e20:    7008        .p      STRB     r0,[r1,#0]
        0x00001e22:    e00a        ..      B        0x1e3a ; I2Cx_Slave_StateMachine + 262
        0x00001e24:    2b80        .+      CMP      r3,#0x80
        0x00001e26:    d108        ..      BNE      0x1e3a ; I2Cx_Slave_StateMachine + 262
        0x00001e28:    7821        !x      LDRB     r1,[r4,#0]
        0x00001e2a:    481d        .H      LDR      r0,[pc,#116] ; [0x1ea0] = 0x20000062
        0x00001e2c:    7802        .x      LDRB     r2,[r0,#0]
        0x00001e2e:    7800        .x      LDRB     r0,[r0,#0]
        0x00001e30:    1c40        @.      ADDS     r0,r0,#1
        0x00001e32:    4e1b        .N      LDR      r6,[pc,#108] ; [0x1ea0] = 0x20000062
        0x00001e34:    7030        0p      STRB     r0,[r6,#0]
        0x00001e36:    481e        .H      LDR      r0,[pc,#120] ; [0x1eb0] = 0x200001c8
        0x00001e38:    5481        .T      STRB     r1,[r0,r2]
        0x00001e3a:    b2d8        ..      UXTB     r0,r3
        0x00001e3c:    4916        .I      LDR      r1,[pc,#88] ; [0x1e98] = 0x2000006c
        0x00001e3e:    7809        .x      LDRB     r1,[r1,#0]
        0x00001e40:    f000fd12    ....    BL       __I2Cx_Slave_StateMachine_Log__ ; 0x2868
        0x00001e44:    e024        $.      B        0x1e90 ; I2Cx_Slave_StateMachine + 348
        0x00001e46:    2ba8        .+      CMP      r3,#0xa8
        0x00001e48:    d10b        ..      BNE      0x1e62 ; I2Cx_Slave_StateMachine + 302
        0x00001e4a:    f7ffff4b    ..K.    BL       I2Cx_Slave_ReturnTx ; 0x1ce4
        0x00001e4e:    4815        .H      LDR      r0,[pc,#84] ; [0x1ea4] = 0x20000061
        0x00001e50:    7801        .x      LDRB     r1,[r0,#0]
        0x00001e52:    7800        .x      LDRB     r0,[r0,#0]
        0x00001e54:    1c40        @.      ADDS     r0,r0,#1
        0x00001e56:    4a13        .J      LDR      r2,[pc,#76] ; [0x1ea4] = 0x20000061
        0x00001e58:    7010        .p      STRB     r0,[r2,#0]
        0x00001e5a:    4817        .H      LDR      r0,[pc,#92] ; [0x1eb8] = 0x20000188
        0x00001e5c:    5c40        @\      LDRB     r0,[r0,r1]
        0x00001e5e:    7028        (p      STRB     r0,[r5,#0]
        0x00001e60:    e010        ..      B        0x1e84 ; I2Cx_Slave_StateMachine + 336
        0x00001e62:    2bc0        .+      CMP      r3,#0xc0
        0x00001e64:    d103        ..      BNE      0x1e6e ; I2Cx_Slave_StateMachine + 314
        0x00001e66:    2000        .       MOVS     r0,#0
        0x00001e68:    490b        .I      LDR      r1,[pc,#44] ; [0x1e98] = 0x2000006c
        0x00001e6a:    7008        .p      STRB     r0,[r1,#0]
        0x00001e6c:    e00a        ..      B        0x1e84 ; I2Cx_Slave_StateMachine + 336
        0x00001e6e:    2bb8        .+      CMP      r3,#0xb8
        0x00001e70:    d108        ..      BNE      0x1e84 ; I2Cx_Slave_StateMachine + 336
        0x00001e72:    480c        .H      LDR      r0,[pc,#48] ; [0x1ea4] = 0x20000061
        0x00001e74:    7801        .x      LDRB     r1,[r0,#0]
        0x00001e76:    7800        .x      LDRB     r0,[r0,#0]
        0x00001e78:    1c40        @.      ADDS     r0,r0,#1
        0x00001e7a:    4a0a        .J      LDR      r2,[pc,#40] ; [0x1ea4] = 0x20000061
        0x00001e7c:    7010        .p      STRB     r0,[r2,#0]
        0x00001e7e:    480e        .H      LDR      r0,[pc,#56] ; [0x1eb8] = 0x20000188
        0x00001e80:    5c40        @\      LDRB     r0,[r0,r1]
        0x00001e82:    7028        (p      STRB     r0,[r5,#0]
        0x00001e84:    b2d8        ..      UXTB     r0,r3
        0x00001e86:    4904        .I      LDR      r1,[pc,#16] ; [0x1e98] = 0x2000006c
        0x00001e88:    7809        .x      LDRB     r1,[r1,#0]
        0x00001e8a:    f000fced    ....    BL       __I2Cx_Slave_StateMachine_Log__ ; 0x2868
        0x00001e8e:    bf00        ..      NOP      
        0x00001e90:    bf00        ..      NOP      
        0x00001e92:    bf00        ..      NOP      
        0x00001e94:    e77a        z.      B        0x1d8c ; I2Cx_Slave_StateMachine + 88
    $d
        0x00001e96:    0000        ..      DCW    0
        0x00001e98:    2000006c    l..     DCD    536871020
        0x00001e9c:    20000063    c..     DCD    536871011
        0x00001ea0:    20000062    b..     DCD    536871010
        0x00001ea4:    20000061    a..     DCD    536871009
        0x00001ea8:    20000060    `..     DCD    536871008
        0x00001eac:    2000005c    \..     DCD    536871004
        0x00001eb0:    200001c8    ...     DCD    536871368
        0x00001eb4:    20000064    d..     DCD    536871012
        0x00001eb8:    20000188    ...     DCD    536871304
    $t
    i.I2Cx_Write_Multi_ToSlave
    I2Cx_Write_Multi_ToSlave
        0x00001ebc:    b530        0.      PUSH     {r4,r5,lr}
        0x00001ebe:    4c10        .L      LDR      r4,[pc,#64] ; [0x1f00] = 0x20000040
        0x00001ec0:    7020         p      STRB     r0,[r4,#0]
        0x00001ec2:    4d10        .M      LDR      r5,[pc,#64] ; [0x1f04] = 0x20000042
        0x00001ec4:    702b        +p      STRB     r3,[r5,#0]
        0x00001ec6:    4c10        .L      LDR      r4,[pc,#64] ; [0x1f08] = 0x20000043
        0x00001ec8:    7021        !p      STRB     r1,[r4,#0]
        0x00001eca:    4c10        .L      LDR      r4,[pc,#64] ; [0x1f0c] = 0x20000048
        0x00001ecc:    6022        "`      STR      r2,[r4,#0]
        0x00001ece:    2400        .$      MOVS     r4,#0
        0x00001ed0:    4d0f        .M      LDR      r5,[pc,#60] ; [0x1f10] = 0x20000041
        0x00001ed2:    702c        ,p      STRB     r4,[r5,#0]
        0x00001ed4:    4d0f        .M      LDR      r5,[pc,#60] ; [0x1f14] = 0x20000044
        0x00001ed6:    702c        ,p      STRB     r4,[r5,#0]
        0x00001ed8:    4c0f        .L      LDR      r4,[pc,#60] ; [0x1f18] = 0x10f5
        0x00001eda:    4d10        .M      LDR      r5,[pc,#64] ; [0x1f1c] = 0x20000050
        0x00001edc:    602c        ,`      STR      r4,[r5,#0]
        0x00001ede:    4c10        .L      LDR      r4,[pc,#64] ; [0x1f20] = 0x40081000
        0x00001ee0:    6824        $h      LDR      r4,[r4,#0]
        0x00001ee2:    253c        <%      MOVS     r5,#0x3c
        0x00001ee4:    43ac        .C      BICS     r4,r4,r5
        0x00001ee6:    3420         4      ADDS     r4,r4,#0x20
        0x00001ee8:    4d0d        .M      LDR      r5,[pc,#52] ; [0x1f20] = 0x40081000
        0x00001eea:    602c        ,`      STR      r4,[r5,#0]
        0x00001eec:    bf00        ..      NOP      
        0x00001eee:    4c09        .L      LDR      r4,[pc,#36] ; [0x1f14] = 0x20000044
        0x00001ef0:    7824        $x      LDRB     r4,[r4,#0]
        0x00001ef2:    2c00        .,      CMP      r4,#0
        0x00001ef4:    d0fb        ..      BEQ      0x1eee ; I2Cx_Write_Multi_ToSlave + 50
        0x00001ef6:    2400        .$      MOVS     r4,#0
        0x00001ef8:    4d06        .M      LDR      r5,[pc,#24] ; [0x1f14] = 0x20000044
        0x00001efa:    702c        ,p      STRB     r4,[r5,#0]
        0x00001efc:    bd30        0.      POP      {r4,r5,pc}
    $d
        0x00001efe:    0000        ..      DCW    0
        0x00001f00:    20000040    @..     DCD    536870976
        0x00001f04:    20000042    B..     DCD    536870978
        0x00001f08:    20000043    C..     DCD    536870979
        0x00001f0c:    20000048    H..     DCD    536870984
        0x00001f10:    20000041    A..     DCD    536870977
        0x00001f14:    20000044    D..     DCD    536870980
        0x00001f18:    000010f5    ....    DCD    4341
        0x00001f1c:    20000050    P..     DCD    536870992
        0x00001f20:    40081000    ...@    DCD    1074270208
    $t
    i.ProcessHardFault
    ProcessHardFault
        0x00001f24:    b5f7        ..      PUSH     {r0-r2,r4-r7,lr}
        0x00001f26:    4605        .F      MOV      r5,r0
        0x00001f28:    460e        .F      MOV      r6,r1
        0x00001f2a:    2004        .       MOVS     r0,#4
        0x00001f2c:    4028        (@      ANDS     r0,r0,r5
        0x00001f2e:    2800        .(      CMP      r0,#0
        0x00001f30:    d001        ..      BEQ      0x1f36 ; ProcessHardFault + 18
        0x00001f32:    9c02        ..      LDR      r4,[sp,#8]
        0x00001f34:    e000        ..      B        0x1f38 ; ProcessHardFault + 20
        0x00001f36:    4634        4F      MOV      r4,r6
        0x00001f38:    69a0        .i      LDR      r0,[r4,#0x18]
        0x00001f3a:    8807        ..      LDRH     r7,[r0,#0]
        0x00001f3c:    480c        .H      LDR      r0,[pc,#48] ; [0x1f70] = 0xbeab
        0x00001f3e:    4287        .B      CMP      r7,r0
        0x00001f40:    d107        ..      BNE      0x1f52 ; ProcessHardFault + 46
        0x00001f42:    2000        .       MOVS     r0,#0
        0x00001f44:    490b        .I      LDR      r1,[pc,#44] ; [0x1f74] = 0x20000014
        0x00001f46:    6008        .`      STR      r0,[r1,#0]
        0x00001f48:    69a0        .i      LDR      r0,[r4,#0x18]
        0x00001f4a:    1c80        ..      ADDS     r0,r0,#2
        0x00001f4c:    61a0        .a      STR      r0,[r4,#0x18]
        0x00001f4e:    4628        (F      MOV      r0,r5
        0x00001f50:    bdfe        ..      POP      {r1-r7,pc}
        0x00001f52:    a009        ..      ADR      r0,{pc}+0x26 ; 0x1f78
        0x00001f54:    f000fc68    ..h.    BL       __0printf$8 ; 0x2828
        0x00001f58:    4620         F      MOV      r0,r4
        0x00001f5a:    f7fefdd7    ....    BL       DumpStack ; 0xb0c
        0x00001f5e:    bf00        ..      NOP      
        0x00001f60:    2101        .!      MOVS     r1,#1
        0x00001f62:    6820         h      LDR      r0,[r4,#0]
        0x00001f64:    4308        .C      ORRS     r0,r0,r1
        0x00001f66:    2800        .(      CMP      r0,#0
        0x00001f68:    d1fa        ..      BNE      0x1f60 ; ProcessHardFault + 60
        0x00001f6a:    4628        (F      MOV      r0,r5
        0x00001f6c:    e7f0        ..      B        0x1f50 ; ProcessHardFault + 44
    $d
        0x00001f6e:    0000        ..      DCW    0
        0x00001f70:    0000beab    ....    DCD    48811
        0x00001f74:    20000014    ...     DCD    536870932
        0x00001f78:    61482020      Ha    DCD    1632116768
        0x00001f7c:    61466472    rdFa    DCD    1632003186
        0x00001f80:    21746c75    ult!    DCD    561278069
        0x00001f84:    00000a0a    ....    DCD    2570
    $t
    i.SH_Return
    SH_Return
        0x00001f88:    4603        .F      MOV      r3,r0
        0x00001f8a:    2000        .       MOVS     r0,#0
        0x00001f8c:    4770        pG      BX       lr
    i.SYS_ClearResetSrc
    SYS_ClearResetSrc
        0x00001f8e:    2101        .!      MOVS     r1,#1
        0x00001f90:    0789        ..      LSLS     r1,r1,#30
        0x00001f92:    6048        H`      STR      r0,[r1,#4]
        0x00001f94:    4770        pG      BX       lr
    i.SYS_GetResetSrc
    SYS_GetResetSrc
        0x00001f96:    2001        .       MOVS     r0,#1
        0x00001f98:    0780        ..      LSLS     r0,r0,#30
        0x00001f9a:    6840        @h      LDR      r0,[r0,#4]
        0x00001f9c:    4770        pG      BX       lr
        0x00001f9e:    0000        ..      MOVS     r0,r0
    i.SYS_Init
    SYS_Init
        0x00001fa0:    b510        ..      PUSH     {r4,lr}
        0x00001fa2:    f000f8c1    ....    BL       SYS_UnlockReg ; 0x2128
        0x00001fa6:    2004        .       MOVS     r0,#4
        0x00001fa8:    f7fefb6e    ..n.    BL       CLK_EnableXtalRC ; 0x688
        0x00001fac:    2010        .       MOVS     r0,#0x10
        0x00001fae:    f7fefc81    ....    BL       CLK_WaitClockReady ; 0x8b4
        0x00001fb2:    2100        .!      MOVS     r1,#0
        0x00001fb4:    2007        .       MOVS     r0,#7
        0x00001fb6:    f7fefbd5    ....    BL       CLK_SetHCLK ; 0x764
        0x00001fba:    4845        EH      LDR      r0,[pc,#276] ; [0x20d0] = 0x5ec00003
        0x00001fbc:    f7fefb44    ..D.    BL       CLK_EnableModuleClock ; 0x648
        0x00001fc0:    2200        ."      MOVS     r2,#0
        0x00001fc2:    2107        .!      MOVS     r1,#7
        0x00001fc4:    0309        ..      LSLS     r1,r1,#12
        0x00001fc6:    4842        BH      LDR      r0,[pc,#264] ; [0x20d0] = 0x5ec00003
        0x00001fc8:    f7fefc04    ....    BL       CLK_SetModuleClock ; 0x7d4
        0x00001fcc:    2007        .       MOVS     r0,#7
        0x00001fce:    f7fefb3b    ..;.    BL       CLK_EnableModuleClock ; 0x648
        0x00001fd2:    4840        @H      LDR      r0,[pc,#256] ; [0x20d4] = 0x5f803d10
        0x00001fd4:    f7fefb38    ..8.    BL       CLK_EnableModuleClock ; 0x648
        0x00001fd8:    2200        ."      MOVS     r2,#0
        0x00001fda:    2103        .!      MOVS     r1,#3
        0x00001fdc:    0609        ..      LSLS     r1,r1,#24
        0x00001fde:    483d        =H      LDR      r0,[pc,#244] ; [0x20d4] = 0x5f803d10
        0x00001fe0:    f7fefbf8    ....    BL       CLK_SetModuleClock ; 0x7d4
        0x00001fe4:    2001        .       MOVS     r0,#1
        0x00001fe6:    0780        ..      LSLS     r0,r0,#30
        0x00001fe8:    6bc0        .k      LDR      r0,[r0,#0x3c]
        0x00001fea:    210f        .!      MOVS     r1,#0xf
        0x00001fec:    0409        ..      LSLS     r1,r1,#16
        0x00001fee:    4388        .C      BICS     r0,r0,r1
        0x00001ff0:    2103        .!      MOVS     r1,#3
        0x00001ff2:    0449        I.      LSLS     r1,r1,#17
        0x00001ff4:    1840        @.      ADDS     r0,r0,r1
        0x00001ff6:    2101        .!      MOVS     r1,#1
        0x00001ff8:    0789        ..      LSLS     r1,r1,#30
        0x00001ffa:    63c8        .c      STR      r0,[r1,#0x3c]
        0x00001ffc:    4608        .F      MOV      r0,r1
        0x00001ffe:    6b00        .k      LDR      r0,[r0,#0x30]
        0x00002000:    21f0        .!      MOVS     r1,#0xf0
        0x00002002:    4388        .C      BICS     r0,r0,r1
        0x00002004:    3070        p0      ADDS     r0,r0,#0x70
        0x00002006:    2101        .!      MOVS     r1,#1
        0x00002008:    0789        ..      LSLS     r1,r1,#30
        0x0000200a:    6308        .c      STR      r0,[r1,#0x30]
        0x0000200c:    4832        2H      LDR      r0,[pc,#200] ; [0x20d8] = 0x6743fe1c
        0x0000200e:    f7fefb1b    ....    BL       CLK_EnableModuleClock ; 0x648
        0x00002012:    2201        ."      MOVS     r2,#1
        0x00002014:    0412        ..      LSLS     r2,r2,#16
        0x00002016:    0151        Q.      LSLS     r1,r2,#5
        0x00002018:    482f        /H      LDR      r0,[pc,#188] ; [0x20d8] = 0x6743fe1c
        0x0000201a:    f7fefbdb    ....    BL       CLK_SetModuleClock ; 0x7d4
        0x0000201e:    2200        ."      MOVS     r2,#0
        0x00002020:    2101        .!      MOVS     r1,#1
        0x00002022:    02c9        ..      LSLS     r1,r1,#11
        0x00002024:    482d        -H      LDR      r0,[pc,#180] ; [0x20dc] = 0x40004040
        0x00002026:    f7fefd99    ....    BL       GPIO_SetMode ; 0xb5c
        0x0000202a:    2001        .       MOVS     r0,#1
        0x0000202c:    0780        ..      LSLS     r0,r0,#30
        0x0000202e:    6bc0        .k      LDR      r0,[r0,#0x3c]
        0x00002030:    210f        .!      MOVS     r1,#0xf
        0x00002032:    0309        ..      LSLS     r1,r1,#12
        0x00002034:    4388        .C      BICS     r0,r0,r1
        0x00002036:    2101        .!      MOVS     r1,#1
        0x00002038:    0309        ..      LSLS     r1,r1,#12
        0x0000203a:    1840        @.      ADDS     r0,r0,r1
        0x0000203c:    0489        ..      LSLS     r1,r1,#18
        0x0000203e:    63c8        .c      STR      r0,[r1,#0x3c]
        0x00002040:    4826        &H      LDR      r0,[pc,#152] ; [0x20dc] = 0x40004040
        0x00002042:    6840        @h      LDR      r0,[r0,#4]
        0x00002044:    10c9        ..      ASRS     r1,r1,#3
        0x00002046:    4308        .C      ORRS     r0,r0,r1
        0x00002048:    4924        $I      LDR      r1,[pc,#144] ; [0x20dc] = 0x40004040
        0x0000204a:    6048        H`      STR      r0,[r1,#4]
        0x0000204c:    4824        $H      LDR      r0,[pc,#144] ; [0x20e0] = 0x8000000c
        0x0000204e:    f7fefafb    ....    BL       CLK_EnableModuleClock ; 0x648
        0x00002052:    2001        .       MOVS     r0,#1
        0x00002054:    0780        ..      LSLS     r0,r0,#30
        0x00002056:    6b00        .k      LDR      r0,[r0,#0x30]
        0x00002058:    0900        ..      LSRS     r0,r0,#4
        0x0000205a:    0100        ..      LSLS     r0,r0,#4
        0x0000205c:    1c40        @.      ADDS     r0,r0,#1
        0x0000205e:    2101        .!      MOVS     r1,#1
        0x00002060:    0789        ..      LSLS     r1,r1,#30
        0x00002062:    6308        .c      STR      r0,[r1,#0x30]
        0x00002064:    481d        .H      LDR      r0,[pc,#116] ; [0x20dc] = 0x40004040
        0x00002066:    3840        @8      SUBS     r0,r0,#0x40
        0x00002068:    6800        .h      LDR      r0,[r0,#0]
        0x0000206a:    0880        ..      LSRS     r0,r0,#2
        0x0000206c:    0080        ..      LSLS     r0,r0,#2
        0x0000206e:    491b        .I      LDR      r1,[pc,#108] ; [0x20dc] = 0x40004040
        0x00002070:    3940        @9      SUBS     r1,r1,#0x40
        0x00002072:    6008        .`      STR      r0,[r1,#0]
        0x00002074:    4608        .F      MOV      r0,r1
        0x00002076:    6840        @h      LDR      r0,[r0,#4]
        0x00002078:    0089        ..      LSLS     r1,r1,#2
        0x0000207a:    4308        .C      ORRS     r0,r0,r1
        0x0000207c:    4917        .I      LDR      r1,[pc,#92] ; [0x20dc] = 0x40004040
        0x0000207e:    3940        @9      SUBS     r1,r1,#0x40
        0x00002080:    6048        H`      STR      r0,[r1,#4]
        0x00002082:    4818        .H      LDR      r0,[pc,#96] ; [0x20e4] = 0x40000008
        0x00002084:    f7fefae0    ....    BL       CLK_EnableModuleClock ; 0x648
        0x00002088:    4816        .H      LDR      r0,[pc,#88] ; [0x20e4] = 0x40000008
        0x0000208a:    3038        80      ADDS     r0,r0,#0x38
        0x0000208c:    6980        .i      LDR      r0,[r0,#0x18]
        0x0000208e:    21ff        .!      MOVS     r1,#0xff
        0x00002090:    0209        ..      LSLS     r1,r1,#8
        0x00002092:    4388        .C      BICS     r0,r0,r1
        0x00002094:    2111        .!      MOVS     r1,#0x11
        0x00002096:    0289        ..      LSLS     r1,r1,#10
        0x00002098:    1840        @.      ADDS     r0,r0,r1
        0x0000209a:    4912        .I      LDR      r1,[pc,#72] ; [0x20e4] = 0x40000008
        0x0000209c:    3138        81      ADDS     r1,r1,#0x38
        0x0000209e:    6188        .a      STR      r0,[r1,#0x18]
        0x000020a0:    4810        .H      LDR      r0,[pc,#64] ; [0x20e4] = 0x40000008
        0x000020a2:    1c40        @.      ADDS     r0,r0,#1
        0x000020a4:    f7fefad0    ....    BL       CLK_EnableModuleClock ; 0x648
        0x000020a8:    2001        .       MOVS     r0,#1
        0x000020aa:    0780        ..      LSLS     r0,r0,#30
        0x000020ac:    6b00        .k      LDR      r0,[r0,#0x30]
        0x000020ae:    21ff        .!      MOVS     r1,#0xff
        0x000020b0:    0209        ..      LSLS     r1,r1,#8
        0x000020b2:    4388        .C      BICS     r0,r0,r1
        0x000020b4:    2199        .!      MOVS     r1,#0x99
        0x000020b6:    0209        ..      LSLS     r1,r1,#8
        0x000020b8:    1840        @.      ADDS     r0,r0,r1
        0x000020ba:    0589        ..      LSLS     r1,r1,#22
        0x000020bc:    6308        .c      STR      r0,[r1,#0x30]
        0x000020be:    f000f8cd    ....    BL       SystemCoreClockUpdate ; 0x225c
        0x000020c2:    bf00        ..      NOP      
        0x000020c4:    2000        .       MOVS     r0,#0
        0x000020c6:    4907        .I      LDR      r1,[pc,#28] ; [0x20e4] = 0x40000008
        0x000020c8:    31f8        .1      ADDS     r1,r1,#0xf8
        0x000020ca:    6008        .`      STR      r0,[r1,#0]
        0x000020cc:    bf00        ..      NOP      
        0x000020ce:    bd10        ..      POP      {r4,pc}
    $d
        0x000020d0:    5ec00003    ...^    DCD    1589641219
        0x000020d4:    5f803d10    .=._    DCD    1602239760
        0x000020d8:    6743fe1c    ..Cg    DCD    1732509212
        0x000020dc:    40004040    @@.@    DCD    1073758272
        0x000020e0:    8000000c    ....    DCD    2147483660
        0x000020e4:    40000008    ...@    DCD    1073741832
    $t
    i.SYS_ResetChip
    SYS_ResetChip
        0x000020e8:    2001        .       MOVS     r0,#1
        0x000020ea:    0780        ..      LSLS     r0,r0,#30
        0x000020ec:    6880        .h      LDR      r0,[r0,#8]
        0x000020ee:    2101        .!      MOVS     r1,#1
        0x000020f0:    4308        .C      ORRS     r0,r0,r1
        0x000020f2:    0789        ..      LSLS     r1,r1,#30
        0x000020f4:    6088        .`      STR      r0,[r1,#8]
        0x000020f6:    4770        pG      BX       lr
    i.SYS_ResetModule
    SYS_ResetModule
        0x000020f8:    0e01        ..      LSRS     r1,r0,#24
        0x000020fa:    2201        ."      MOVS     r2,#1
        0x000020fc:    0792        ..      LSLS     r2,r2,#30
        0x000020fe:    1889        ..      ADDS     r1,r1,r2
        0x00002100:    6889        .h      LDR      r1,[r1,#8]
        0x00002102:    2201        ."      MOVS     r2,#1
        0x00002104:    4082        .@      LSLS     r2,r2,r0
        0x00002106:    4311        .C      ORRS     r1,r1,r2
        0x00002108:    0e02        ..      LSRS     r2,r0,#24
        0x0000210a:    2301        .#      MOVS     r3,#1
        0x0000210c:    079b        ..      LSLS     r3,r3,#30
        0x0000210e:    18d2        ..      ADDS     r2,r2,r3
        0x00002110:    6091        .`      STR      r1,[r2,#8]
        0x00002112:    0e01        ..      LSRS     r1,r0,#24
        0x00002114:    461a        .F      MOV      r2,r3
        0x00002116:    1889        ..      ADDS     r1,r1,r2
        0x00002118:    688a        .h      LDR      r2,[r1,#8]
        0x0000211a:    2101        .!      MOVS     r1,#1
        0x0000211c:    4081        .@      LSLS     r1,r1,r0
        0x0000211e:    438a        .C      BICS     r2,r2,r1
        0x00002120:    0e01        ..      LSRS     r1,r0,#24
        0x00002122:    18c9        ..      ADDS     r1,r1,r3
        0x00002124:    608a        .`      STR      r2,[r1,#8]
        0x00002126:    4770        pG      BX       lr
    i.SYS_UnlockReg
    SYS_UnlockReg
        0x00002128:    bf00        ..      NOP      
        0x0000212a:    2059        Y       MOVS     r0,#0x59
        0x0000212c:    4905        .I      LDR      r1,[pc,#20] ; [0x2144] = 0x40000100
        0x0000212e:    6008        .`      STR      r0,[r1,#0]
        0x00002130:    2016        .       MOVS     r0,#0x16
        0x00002132:    6008        .`      STR      r0,[r1,#0]
        0x00002134:    2088        .       MOVS     r0,#0x88
        0x00002136:    6008        .`      STR      r0,[r1,#0]
        0x00002138:    4608        .F      MOV      r0,r1
        0x0000213a:    6800        .h      LDR      r0,[r0,#0]
        0x0000213c:    2800        .(      CMP      r0,#0
        0x0000213e:    d0f4        ..      BEQ      0x212a ; SYS_UnlockReg + 2
        0x00002140:    4770        pG      BX       lr
    $d
        0x00002142:    0000        ..      DCW    0
        0x00002144:    40000100    ...@    DCD    1073742080
    $t
    i.SendChar
    SendChar
        0x00002148:    b500        ..      PUSH     {lr}
        0x0000214a:    4603        .F      MOV      r3,r0
        0x0000214c:    4618        .F      MOV      r0,r3
        0x0000214e:    f000f801    ....    BL       SendChar_ToUART ; 0x2154
        0x00002152:    bd00        ..      POP      {pc}
    i.SendChar_ToUART
    SendChar_ToUART
        0x00002154:    bf00        ..      NOP      
        0x00002156:    490c        .I      LDR      r1,[pc,#48] ; [0x2188] = 0x40070000
        0x00002158:    6989        .i      LDR      r1,[r1,#0x18]
        0x0000215a:    2201        ."      MOVS     r2,#1
        0x0000215c:    05d2        ..      LSLS     r2,r2,#23
        0x0000215e:    4011        .@      ANDS     r1,r1,r2
        0x00002160:    2900        .)      CMP      r1,#0
        0x00002162:    d1f8        ..      BNE      0x2156 ; SendChar_ToUART + 2
        0x00002164:    b2c1        ..      UXTB     r1,r0
        0x00002166:    290a        .)      CMP      r1,#0xa
        0x00002168:    d10a        ..      BNE      0x2180 ; SendChar_ToUART + 44
        0x0000216a:    210d        .!      MOVS     r1,#0xd
        0x0000216c:    4a06        .J      LDR      r2,[pc,#24] ; [0x2188] = 0x40070000
        0x0000216e:    6011        .`      STR      r1,[r2,#0]
        0x00002170:    bf00        ..      NOP      
        0x00002172:    4905        .I      LDR      r1,[pc,#20] ; [0x2188] = 0x40070000
        0x00002174:    6989        .i      LDR      r1,[r1,#0x18]
        0x00002176:    2201        ."      MOVS     r2,#1
        0x00002178:    05d2        ..      LSLS     r2,r2,#23
        0x0000217a:    4011        .@      ANDS     r1,r1,r2
        0x0000217c:    2900        .)      CMP      r1,#0
        0x0000217e:    d1f8        ..      BNE      0x2172 ; SendChar_ToUART + 30
        0x00002180:    4901        .I      LDR      r1,[pc,#4] ; [0x2188] = 0x40070000
        0x00002182:    6008        .`      STR      r0,[r1,#0]
        0x00002184:    4770        pG      BX       lr
    $d
        0x00002186:    0000        ..      DCW    0
        0x00002188:    40070000    ...@    DCD    1074200576
    $t
    i.Sort_tab
    Sort_tab
        0x0000218c:    b570        p.      PUSH     {r4-r6,lr}
        0x0000218e:    4602        .F      MOV      r2,r0
        0x00002190:    2000        .       MOVS     r0,#0
        0x00002192:    2301        .#      MOVS     r3,#1
        0x00002194:    2400        .$      MOVS     r4,#0
        0x00002196:    e019        ..      B        0x21cc ; Sort_tab + 64
        0x00002198:    2300        .#      MOVS     r3,#0
        0x0000219a:    2000        .       MOVS     r0,#0
        0x0000219c:    e013        ..      B        0x21c6 ; Sort_tab + 58
        0x0000219e:    0045        E.      LSLS     r5,r0,#1
        0x000021a0:    5b56        V[      LDRH     r6,[r2,r5]
        0x000021a2:    1c45        E.      ADDS     r5,r0,#1
        0x000021a4:    006d        m.      LSLS     r5,r5,#1
        0x000021a6:    5b55        U[      LDRH     r5,[r2,r5]
        0x000021a8:    42ae        .B      CMP      r6,r5
        0x000021aa:    dd0a        ..      BLE      0x21c2 ; Sort_tab + 54
        0x000021ac:    0045        E.      LSLS     r5,r0,#1
        0x000021ae:    5b54        T[      LDRH     r4,[r2,r5]
        0x000021b0:    1c45        E.      ADDS     r5,r0,#1
        0x000021b2:    006d        m.      LSLS     r5,r5,#1
        0x000021b4:    5b55        U[      LDRH     r5,[r2,r5]
        0x000021b6:    0046        F.      LSLS     r6,r0,#1
        0x000021b8:    5395        .S      STRH     r5,[r2,r6]
        0x000021ba:    1c45        E.      ADDS     r5,r0,#1
        0x000021bc:    006d        m.      LSLS     r5,r5,#1
        0x000021be:    5354        TS      STRH     r4,[r2,r5]
        0x000021c0:    2301        .#      MOVS     r3,#1
        0x000021c2:    1c45        E.      ADDS     r5,r0,#1
        0x000021c4:    b2e8        ..      UXTB     r0,r5
        0x000021c6:    1e4d        M.      SUBS     r5,r1,#1
        0x000021c8:    4285        .B      CMP      r5,r0
        0x000021ca:    dce8        ..      BGT      0x219e ; Sort_tab + 18
        0x000021cc:    2b01        .+      CMP      r3,#1
        0x000021ce:    d0e3        ..      BEQ      0x2198 ; Sort_tab + 12
        0x000021d0:    bd70        p.      POP      {r4-r6,pc}
    i.SysTick_Handler
    SysTick_Handler
        0x000021d2:    b500        ..      PUSH     {lr}
        0x000021d4:    f000ffba    ....    BL       systick_counter ; 0x314c
        0x000021d8:    f000ff4a    ..J.    BL       get_systick ; 0x3070
        0x000021dc:    1c40        @.      ADDS     r0,r0,#1
        0x000021de:    2800        .(      CMP      r0,#0
        0x000021e0:    d101        ..      BNE      0x21e6 ; SysTick_Handler + 20
        0x000021e2:    f000ffa7    ....    BL       set_systick ; 0x3134
        0x000021e6:    bd00        ..      POP      {pc}
    i.SysTick_enable
    SysTick_enable
        0x000021e8:    b570        p.      PUSH     {r4-r6,lr}
        0x000021ea:    4605        .F      MOV      r5,r0
        0x000021ec:    2000        .       MOVS     r0,#0
        0x000021ee:    f000ffa1    ....    BL       set_systick ; 0x3134
        0x000021f2:    4629        )F      MOV      r1,r5
        0x000021f4:    480f        .H      LDR      r0,[pc,#60] ; [0x2234] = 0x20000000
        0x000021f6:    6800        .h      LDR      r0,[r0,#0]
        0x000021f8:    f7fdff8e    ....    BL       __aeabi_uidiv ; 0x118
        0x000021fc:    4604        .F      MOV      r4,r0
        0x000021fe:    1e60        `.      SUBS     r0,r4,#1
        0x00002200:    490d        .I      LDR      r1,[pc,#52] ; [0x2238] = 0xffffff
        0x00002202:    4288        .B      CMP      r0,r1
        0x00002204:    d901        ..      BLS      0x220a ; SysTick_enable + 34
        0x00002206:    2001        .       MOVS     r0,#1
        0x00002208:    e00c        ..      B        0x2224 ; SysTick_enable + 60
        0x0000220a:    1e60        `.      SUBS     r0,r4,#1
        0x0000220c:    490b        .I      LDR      r1,[pc,#44] ; [0x223c] = 0xe000e000
        0x0000220e:    6148        Ha      STR      r0,[r1,#0x14]
        0x00002210:    2103        .!      MOVS     r1,#3
        0x00002212:    1f08        ..      SUBS     r0,r1,#4
        0x00002214:    f000fb52    ..R.    BL       __NVIC_SetPriority ; 0x28bc
        0x00002218:    2000        .       MOVS     r0,#0
        0x0000221a:    4908        .I      LDR      r1,[pc,#32] ; [0x223c] = 0xe000e000
        0x0000221c:    6188        .a      STR      r0,[r1,#0x18]
        0x0000221e:    2007        .       MOVS     r0,#7
        0x00002220:    6108        .a      STR      r0,[r1,#0x10]
        0x00002222:    2000        .       MOVS     r0,#0
        0x00002224:    2800        .(      CMP      r0,#0
        0x00002226:    d004        ..      BEQ      0x2232 ; SysTick_enable + 74
        0x00002228:    a005        ..      ADR      r0,{pc}+0x18 ; 0x2240
        0x0000222a:    f000fafd    ....    BL       __0printf$8 ; 0x2828
        0x0000222e:    bf00        ..      NOP      
        0x00002230:    e7fe        ..      B        0x2230 ; SysTick_enable + 72
        0x00002232:    bd70        p.      POP      {r4-r6,pc}
    $d
        0x00002234:    20000000    ...     DCD    536870912
        0x00002238:    00ffffff    ....    DCD    16777215
        0x0000223c:    e000e000    ....    DCD    3758153728
        0x00002240:    20746553    Set     DCD    544499027
        0x00002244:    74737973    syst    DCD    1953724787
        0x00002248:    74206d65    em t    DCD    1948282213
        0x0000224c:    206b6369    ick     DCD    543908713
        0x00002250:    6f727265    erro    DCD    1869771365
        0x00002254:    0a212172    r!!.    DCD    169943410
        0x00002258:    00000000    ....    DCD    0
    $t
    i.SystemCoreClockUpdate
    SystemCoreClockUpdate
        0x0000225c:    b570        p.      PUSH     {r4-r6,lr}
        0x0000225e:    4812        .H      LDR      r0,[pc,#72] ; [0x22a8] = 0x40000200
        0x00002260:    6900        .i      LDR      r0,[r0,#0x10]
        0x00002262:    0745        E.      LSLS     r5,r0,#29
        0x00002264:    0f6d        m.      LSRS     r5,r5,#29
        0x00002266:    f7fefa47    ..G.    BL       CLK_GetPLLClockFreq ; 0x6f8
        0x0000226a:    4910        .I      LDR      r1,[pc,#64] ; [0x22ac] = 0x20000008
        0x0000226c:    6008        .`      STR      r0,[r1,#0]
        0x0000226e:    2d02        .-      CMP      r5,#2
        0x00002270:    d003        ..      BEQ      0x227a ; SystemCoreClockUpdate + 30
        0x00002272:    00a8        ..      LSLS     r0,r5,#2
        0x00002274:    490e        .I      LDR      r1,[pc,#56] ; [0x22b0] = 0x3184
        0x00002276:    580c        .X      LDR      r4,[r1,r0]
        0x00002278:    e001        ..      B        0x227e ; SystemCoreClockUpdate + 34
        0x0000227a:    480c        .H      LDR      r0,[pc,#48] ; [0x22ac] = 0x20000008
        0x0000227c:    6804        .h      LDR      r4,[r0,#0]
        0x0000227e:    480a        .H      LDR      r0,[pc,#40] ; [0x22a8] = 0x40000200
        0x00002280:    6a00        .j      LDR      r0,[r0,#0x20]
        0x00002282:    0700        ..      LSLS     r0,r0,#28
        0x00002284:    0f00        ..      LSRS     r0,r0,#28
        0x00002286:    1c46        F.      ADDS     r6,r0,#1
        0x00002288:    4631        1F      MOV      r1,r6
        0x0000228a:    4620         F      MOV      r0,r4
        0x0000228c:    f7fdff44    ..D.    BL       __aeabi_uidiv ; 0x118
        0x00002290:    4908        .I      LDR      r1,[pc,#32] ; [0x22b4] = 0x20000000
        0x00002292:    6008        .`      STR      r0,[r1,#0]
        0x00002294:    4908        .I      LDR      r1,[pc,#32] ; [0x22b8] = 0xf4240
        0x00002296:    4807        .H      LDR      r0,[pc,#28] ; [0x22b4] = 0x20000000
        0x00002298:    6800        .h      LDR      r0,[r0,#0]
        0x0000229a:    104a        J.      ASRS     r2,r1,#1
        0x0000229c:    1880        ..      ADDS     r0,r0,r2
        0x0000229e:    f7fdff3b    ..;.    BL       __aeabi_uidiv ; 0x118
        0x000022a2:    4906        .I      LDR      r1,[pc,#24] ; [0x22bc] = 0x20000004
        0x000022a4:    6008        .`      STR      r0,[r1,#0]
        0x000022a6:    bd70        p.      POP      {r4-r6,pc}
    $d
        0x000022a8:    40000200    ...@    DCD    1073742336
        0x000022ac:    20000008    ...     DCD    536870920
        0x000022b0:    00003184    .1..    DCD    12676
        0x000022b4:    20000000    ...     DCD    536870912
        0x000022b8:    000f4240    @B..    DCD    1000000
        0x000022bc:    20000004    ...     DCD    536870916
    $t
    i.SystemInit
    SystemInit
        0x000022c0:    bf00        ..      NOP      
        0x000022c2:    bf00        ..      NOP      
        0x000022c4:    bf00        ..      NOP      
        0x000022c6:    2059        Y       MOVS     r0,#0x59
        0x000022c8:    490b        .I      LDR      r1,[pc,#44] ; [0x22f8] = 0x40000100
        0x000022ca:    6008        .`      STR      r0,[r1,#0]
        0x000022cc:    2016        .       MOVS     r0,#0x16
        0x000022ce:    6008        .`      STR      r0,[r1,#0]
        0x000022d0:    2088        .       MOVS     r0,#0x88
        0x000022d2:    6008        .`      STR      r0,[r1,#0]
        0x000022d4:    4608        .F      MOV      r0,r1
        0x000022d6:    6800        .h      LDR      r0,[r0,#0]
        0x000022d8:    2800        .(      CMP      r0,#0
        0x000022da:    d0f4        ..      BEQ      0x22c6 ; SystemInit + 6
        0x000022dc:    bf00        ..      NOP      
        0x000022de:    0588        ..      LSLS     r0,r1,#22
        0x000022e0:    6a80        .j      LDR      r0,[r0,#0x28]
        0x000022e2:    1589        ..      ASRS     r1,r1,#22
        0x000022e4:    4308        .C      ORRS     r0,r0,r1
        0x000022e6:    0589        ..      LSLS     r1,r1,#22
        0x000022e8:    6288        .b      STR      r0,[r1,#0x28]
        0x000022ea:    bf00        ..      NOP      
        0x000022ec:    2000        .       MOVS     r0,#0
        0x000022ee:    4902        .I      LDR      r1,[pc,#8] ; [0x22f8] = 0x40000100
        0x000022f0:    6008        .`      STR      r0,[r1,#0]
        0x000022f2:    bf00        ..      NOP      
        0x000022f4:    4770        pG      BX       lr
    $d
        0x000022f6:    0000        ..      DCW    0
        0x000022f8:    40000100    ...@    DCD    1073742080
    $t
    i.TIMER1_Init
    TIMER1_Init
        0x000022fc:    b510        ..      PUSH     {r4,lr}
        0x000022fe:    227d        }"      MOVS     r2,#0x7d
        0x00002300:    00d2        ..      LSLS     r2,r2,#3
        0x00002302:    2101        .!      MOVS     r1,#1
        0x00002304:    06c9        ..      LSLS     r1,r1,#27
        0x00002306:    480c        .H      LDR      r0,[pc,#48] ; [0x2338] = 0x40050020
        0x00002308:    f000f884    ....    BL       TIMER_Open ; 0x2414
        0x0000230c:    bf00        ..      NOP      
        0x0000230e:    480a        .H      LDR      r0,[pc,#40] ; [0x2338] = 0x40050020
        0x00002310:    6800        .h      LDR      r0,[r0,#0]
        0x00002312:    2101        .!      MOVS     r1,#1
        0x00002314:    0749        I.      LSLS     r1,r1,#29
        0x00002316:    4308        .C      ORRS     r0,r0,r1
        0x00002318:    4907        .I      LDR      r1,[pc,#28] ; [0x2338] = 0x40050020
        0x0000231a:    6008        .`      STR      r0,[r1,#0]
        0x0000231c:    bf00        ..      NOP      
        0x0000231e:    2009        .       MOVS     r0,#9
        0x00002320:    f000fac0    ....    BL       __NVIC_EnableIRQ ; 0x28a4
        0x00002324:    bf00        ..      NOP      
        0x00002326:    4804        .H      LDR      r0,[pc,#16] ; [0x2338] = 0x40050020
        0x00002328:    6800        .h      LDR      r0,[r0,#0]
        0x0000232a:    2101        .!      MOVS     r1,#1
        0x0000232c:    0789        ..      LSLS     r1,r1,#30
        0x0000232e:    4308        .C      ORRS     r0,r0,r1
        0x00002330:    4901        .I      LDR      r1,[pc,#4] ; [0x2338] = 0x40050020
        0x00002332:    6008        .`      STR      r0,[r1,#0]
        0x00002334:    bf00        ..      NOP      
        0x00002336:    bd10        ..      POP      {r4,pc}
    $d
        0x00002338:    40050020     ..@    DCD    1074069536
    $t
    i.TIMER_GetModuleClock
    TIMER_GetModuleClock
        0x0000233c:    b530        0.      PUSH     {r4,r5,lr}
        0x0000233e:    b089        ..      SUB      sp,sp,#0x24
        0x00002340:    4604        .F      MOV      r4,r0
        0x00002342:    2500        .%      MOVS     r5,#0
        0x00002344:    2220         "      MOVS     r2,#0x20
        0x00002346:    492e        .I      LDR      r1,[pc,#184] ; [0x2400] = 0x3224
        0x00002348:    a801        ..      ADD      r0,sp,#4
        0x0000234a:    f7fdfefb    ....    BL       __aeabi_memcpy ; 0x144
        0x0000234e:    482d        -H      LDR      r0,[pc,#180] ; [0x2404] = 0x40050000
        0x00002350:    4284        .B      CMP      r4,r0
        0x00002352:    d106        ..      BNE      0x2362 ; TIMER_GetModuleClock + 38
        0x00002354:    482c        ,H      LDR      r0,[pc,#176] ; [0x2408] = 0x40000200
        0x00002356:    6940        @i      LDR      r0,[r0,#0x14]
        0x00002358:    2107        .!      MOVS     r1,#7
        0x0000235a:    0209        ..      LSLS     r1,r1,#8
        0x0000235c:    4008        .@      ANDS     r0,r0,r1
        0x0000235e:    0a05        ..      LSRS     r5,r0,#8
        0x00002360:    e033        3.      B        0x23ca ; TIMER_GetModuleClock + 142
        0x00002362:    4828        (H      LDR      r0,[pc,#160] ; [0x2404] = 0x40050000
        0x00002364:    3020         0      ADDS     r0,r0,#0x20
        0x00002366:    4284        .B      CMP      r4,r0
        0x00002368:    d106        ..      BNE      0x2378 ; TIMER_GetModuleClock + 60
        0x0000236a:    4827        'H      LDR      r0,[pc,#156] ; [0x2408] = 0x40000200
        0x0000236c:    6940        @i      LDR      r0,[r0,#0x14]
        0x0000236e:    2107        .!      MOVS     r1,#7
        0x00002370:    0309        ..      LSLS     r1,r1,#12
        0x00002372:    4008        .@      ANDS     r0,r0,r1
        0x00002374:    0b05        ..      LSRS     r5,r0,#12
        0x00002376:    e028        (.      B        0x23ca ; TIMER_GetModuleClock + 142
        0x00002378:    4824        $H      LDR      r0,[pc,#144] ; [0x240c] = 0x40051000
        0x0000237a:    4284        .B      CMP      r4,r0
        0x0000237c:    d106        ..      BNE      0x238c ; TIMER_GetModuleClock + 80
        0x0000237e:    4822        "H      LDR      r0,[pc,#136] ; [0x2408] = 0x40000200
        0x00002380:    6940        @i      LDR      r0,[r0,#0x14]
        0x00002382:    2107        .!      MOVS     r1,#7
        0x00002384:    0409        ..      LSLS     r1,r1,#16
        0x00002386:    4008        .@      ANDS     r0,r0,r1
        0x00002388:    0c05        ..      LSRS     r5,r0,#16
        0x0000238a:    e01e        ..      B        0x23ca ; TIMER_GetModuleClock + 142
        0x0000238c:    481f        .H      LDR      r0,[pc,#124] ; [0x240c] = 0x40051000
        0x0000238e:    3020         0      ADDS     r0,r0,#0x20
        0x00002390:    4284        .B      CMP      r4,r0
        0x00002392:    d106        ..      BNE      0x23a2 ; TIMER_GetModuleClock + 102
        0x00002394:    481c        .H      LDR      r0,[pc,#112] ; [0x2408] = 0x40000200
        0x00002396:    6940        @i      LDR      r0,[r0,#0x14]
        0x00002398:    2107        .!      MOVS     r1,#7
        0x0000239a:    0509        ..      LSLS     r1,r1,#20
        0x0000239c:    4008        .@      ANDS     r0,r0,r1
        0x0000239e:    0d05        ..      LSRS     r5,r0,#20
        0x000023a0:    e013        ..      B        0x23ca ; TIMER_GetModuleClock + 142
        0x000023a2:    481b        .H      LDR      r0,[pc,#108] ; [0x2410] = 0x40052000
        0x000023a4:    4284        .B      CMP      r4,r0
        0x000023a6:    d106        ..      BNE      0x23b6 ; TIMER_GetModuleClock + 122
        0x000023a8:    4817        .H      LDR      r0,[pc,#92] ; [0x2408] = 0x40000200
        0x000023aa:    6980        .i      LDR      r0,[r0,#0x18]
        0x000023ac:    2107        .!      MOVS     r1,#7
        0x000023ae:    0309        ..      LSLS     r1,r1,#12
        0x000023b0:    4008        .@      ANDS     r0,r0,r1
        0x000023b2:    0b05        ..      LSRS     r5,r0,#12
        0x000023b4:    e009        ..      B        0x23ca ; TIMER_GetModuleClock + 142
        0x000023b6:    4816        .H      LDR      r0,[pc,#88] ; [0x2410] = 0x40052000
        0x000023b8:    3020         0      ADDS     r0,r0,#0x20
        0x000023ba:    4284        .B      CMP      r4,r0
        0x000023bc:    d105        ..      BNE      0x23ca ; TIMER_GetModuleClock + 142
        0x000023be:    4812        .H      LDR      r0,[pc,#72] ; [0x2408] = 0x40000200
        0x000023c0:    6980        .i      LDR      r0,[r0,#0x18]
        0x000023c2:    2107        .!      MOVS     r1,#7
        0x000023c4:    0409        ..      LSLS     r1,r1,#16
        0x000023c6:    4008        .@      ANDS     r0,r0,r1
        0x000023c8:    0c05        ..      LSRS     r5,r0,#16
        0x000023ca:    2d02        .-      CMP      r5,#2
        0x000023cc:    d114        ..      BNE      0x23f8 ; TIMER_GetModuleClock + 188
        0x000023ce:    480d        .H      LDR      r0,[pc,#52] ; [0x2404] = 0x40050000
        0x000023d0:    4284        .B      CMP      r4,r0
        0x000023d2:    d00a        ..      BEQ      0x23ea ; TIMER_GetModuleClock + 174
        0x000023d4:    480b        .H      LDR      r0,[pc,#44] ; [0x2404] = 0x40050000
        0x000023d6:    3020         0      ADDS     r0,r0,#0x20
        0x000023d8:    4284        .B      CMP      r4,r0
        0x000023da:    d006        ..      BEQ      0x23ea ; TIMER_GetModuleClock + 174
        0x000023dc:    480c        .H      LDR      r0,[pc,#48] ; [0x2410] = 0x40052000
        0x000023de:    4284        .B      CMP      r4,r0
        0x000023e0:    d003        ..      BEQ      0x23ea ; TIMER_GetModuleClock + 174
        0x000023e2:    480b        .H      LDR      r0,[pc,#44] ; [0x2410] = 0x40052000
        0x000023e4:    3020         0      ADDS     r0,r0,#0x20
        0x000023e6:    4284        .B      CMP      r4,r0
        0x000023e8:    d103        ..      BNE      0x23f2 ; TIMER_GetModuleClock + 182
        0x000023ea:    f7fef965    ..e.    BL       CLK_GetPCLK0Freq ; 0x6b8
        0x000023ee:    b009        ..      ADD      sp,sp,#0x24
        0x000023f0:    bd30        0.      POP      {r4,r5,pc}
        0x000023f2:    f7fef971    ..q.    BL       CLK_GetPCLK1Freq ; 0x6d8
        0x000023f6:    e7fa        ..      B        0x23ee ; TIMER_GetModuleClock + 178
        0x000023f8:    00a8        ..      LSLS     r0,r5,#2
        0x000023fa:    a901        ..      ADD      r1,sp,#4
        0x000023fc:    5808        .X      LDR      r0,[r1,r0]
        0x000023fe:    e7f6        ..      B        0x23ee ; TIMER_GetModuleClock + 178
    $d
        0x00002400:    00003224    $2..    DCD    12836
        0x00002404:    40050000    ...@    DCD    1074069504
        0x00002408:    40000200    ...@    DCD    1073742336
        0x0000240c:    40051000    ...@    DCD    1074073600
        0x00002410:    40052000    . .@    DCD    1074077696
    $t
    i.TIMER_Open
    TIMER_Open
        0x00002414:    b5f7        ..      PUSH     {r0-r2,r4-r7,lr}
        0x00002416:    b082        ..      SUB      sp,sp,#8
        0x00002418:    4606        .F      MOV      r6,r0
        0x0000241a:    4617        .F      MOV      r7,r2
        0x0000241c:    4630        0F      MOV      r0,r6
        0x0000241e:    f7ffff8d    ....    BL       TIMER_GetModuleClock ; 0x233c
        0x00002422:    9001        ..      STR      r0,[sp,#4]
        0x00002424:    2400        .$      MOVS     r4,#0
        0x00002426:    2500        .%      MOVS     r5,#0
        0x00002428:    9801        ..      LDR      r0,[sp,#4]
        0x0000242a:    0840        @.      LSRS     r0,r0,#1
        0x0000242c:    42b8        .B      CMP      r0,r7
        0x0000242e:    d801        ..      BHI      0x2434 ; TIMER_Open + 32
        0x00002430:    2402        .$      MOVS     r4,#2
        0x00002432:    e00c        ..      B        0x244e ; TIMER_Open + 58
        0x00002434:    4639        9F      MOV      r1,r7
        0x00002436:    9801        ..      LDR      r0,[sp,#4]
        0x00002438:    f7fdfe6e    ..n.    BL       __aeabi_uidiv ; 0x118
        0x0000243c:    4604        .F      MOV      r4,r0
        0x0000243e:    0e25        %.      LSRS     r5,r4,#24
        0x00002440:    2d00        .-      CMP      r5,#0
        0x00002442:    d004        ..      BEQ      0x244e ; TIMER_Open + 58
        0x00002444:    1c69        i.      ADDS     r1,r5,#1
        0x00002446:    4620         F      MOV      r0,r4
        0x00002448:    f7fdfe66    ..f.    BL       __aeabi_uidiv ; 0x118
        0x0000244c:    4604        .F      MOV      r4,r0
        0x0000244e:    9803        ..      LDR      r0,[sp,#0xc]
        0x00002450:    4328        (C      ORRS     r0,r0,r5
        0x00002452:    6030        0`      STR      r0,[r6,#0]
        0x00002454:    6074        t`      STR      r4,[r6,#4]
        0x00002456:    1c68        h.      ADDS     r0,r5,#1
        0x00002458:    4360        `C      MULS     r0,r4,r0
        0x0000245a:    4601        .F      MOV      r1,r0
        0x0000245c:    9801        ..      LDR      r0,[sp,#4]
        0x0000245e:    f7fdfe5b    ..[.    BL       __aeabi_uidiv ; 0x118
        0x00002462:    b005        ..      ADD      sp,sp,#0x14
        0x00002464:    bdf0        ..      POP      {r4-r7,pc}
        0x00002466:    0000        ..      MOVS     r0,r0
    i.TMR1_IRQHandler
    TMR1_IRQHandler
        0x00002468:    b510        ..      PUSH     {r4,lr}
        0x0000246a:    bf00        ..      NOP      
        0x0000246c:    4817        .H      LDR      r0,[pc,#92] ; [0x24cc] = 0x40050020
        0x0000246e:    6880        .h      LDR      r0,[r0,#8]
        0x00002470:    07c0        ..      LSLS     r0,r0,#31
        0x00002472:    0fc0        ..      LSRS     r0,r0,#31
        0x00002474:    2800        .(      CMP      r0,#0
        0x00002476:    d027        '.      BEQ      0x24c8 ; TMR1_IRQHandler + 96
        0x00002478:    bf00        ..      NOP      
        0x0000247a:    2001        .       MOVS     r0,#1
        0x0000247c:    4913        .I      LDR      r1,[pc,#76] ; [0x24cc] = 0x40050020
        0x0000247e:    6088        .`      STR      r0,[r1,#8]
        0x00002480:    bf00        ..      NOP      
        0x00002482:    f000fe6b    ..k.    BL       tick_counter ; 0x315c
        0x00002486:    f000fdf9    ....    BL       get_tick ; 0x307c
        0x0000248a:    4604        .F      MOV      r4,r0
        0x0000248c:    217d        }!      MOVS     r1,#0x7d
        0x0000248e:    00c9        ..      LSLS     r1,r1,#3
        0x00002490:    f7fdfe42    ..B.    BL       __aeabi_uidiv ; 0x118
        0x00002494:    2900        .)      CMP      r1,#0
        0x00002496:    d106        ..      BNE      0x24a6 ; TMR1_IRQHandler + 62
        0x00002498:    480d        .H      LDR      r0,[pc,#52] ; [0x24d0] = 0x20000020
        0x0000249a:    6800        .h      LDR      r0,[r0,#0]
        0x0000249c:    0840        @.      LSRS     r0,r0,#1
        0x0000249e:    0040        @.      LSLS     r0,r0,#1
        0x000024a0:    1c40        @.      ADDS     r0,r0,#1
        0x000024a2:    490b        .I      LDR      r1,[pc,#44] ; [0x24d0] = 0x20000020
        0x000024a4:    6008        .`      STR      r0,[r1,#0]
        0x000024a6:    f000fde9    ....    BL       get_tick ; 0x307c
        0x000024aa:    4604        .F      MOV      r4,r0
        0x000024ac:    2164        d!      MOVS     r1,#0x64
        0x000024ae:    f7fdfe33    ..3.    BL       __aeabi_uidiv ; 0x118
        0x000024b2:    2900        .)      CMP      r1,#0
        0x000024b4:    d106        ..      BNE      0x24c4 ; TMR1_IRQHandler + 92
        0x000024b6:    4806        .H      LDR      r0,[pc,#24] ; [0x24d0] = 0x20000020
        0x000024b8:    6800        .h      LDR      r0,[r0,#0]
        0x000024ba:    2102        .!      MOVS     r1,#2
        0x000024bc:    4388        .C      BICS     r0,r0,r1
        0x000024be:    1c80        ..      ADDS     r0,r0,#2
        0x000024c0:    4903        .I      LDR      r1,[pc,#12] ; [0x24d0] = 0x20000020
        0x000024c2:    6008        .`      STR      r0,[r1,#0]
        0x000024c4:    f000fdda    ....    BL       get_tick ; 0x307c
        0x000024c8:    bd10        ..      POP      {r4,pc}
    $d
        0x000024ca:    0000        ..      DCW    0
        0x000024cc:    40050020     ..@    DCD    1074069536
        0x000024d0:    20000020     ..     DCD    536870944
    $t
    i.UART0_IRQHandler
    UART0_IRQHandler
        0x000024d4:    b510        ..      PUSH     {r4,lr}
        0x000024d6:    4811        .H      LDR      r0,[pc,#68] ; [0x251c] = 0x40070000
        0x000024d8:    69c0        .i      LDR      r0,[r0,#0x1c]
        0x000024da:    2111        .!      MOVS     r1,#0x11
        0x000024dc:    0209        ..      LSLS     r1,r1,#8
        0x000024de:    4008        .@      ANDS     r0,r0,r1
        0x000024e0:    2800        .(      CMP      r0,#0
        0x000024e2:    d001        ..      BEQ      0x24e8 ; UART0_IRQHandler + 20
        0x000024e4:    2001        .       MOVS     r0,#1
        0x000024e6:    e000        ..      B        0x24ea ; UART0_IRQHandler + 22
        0x000024e8:    2000        .       MOVS     r0,#0
        0x000024ea:    2800        .(      CMP      r0,#0
        0x000024ec:    d009        ..      BEQ      0x2502 ; UART0_IRQHandler + 46
        0x000024ee:    e001        ..      B        0x24f4 ; UART0_IRQHandler + 32
        0x000024f0:    f000f924    ..$.    BL       UARTx_Process ; 0x273c
        0x000024f4:    4809        .H      LDR      r0,[pc,#36] ; [0x251c] = 0x40070000
        0x000024f6:    6980        .i      LDR      r0,[r0,#0x18]
        0x000024f8:    2101        .!      MOVS     r1,#1
        0x000024fa:    0389        ..      LSLS     r1,r1,#14
        0x000024fc:    4008        .@      ANDS     r0,r0,r1
        0x000024fe:    2800        .(      CMP      r0,#0
        0x00002500:    d0f6        ..      BEQ      0x24f0 ; UART0_IRQHandler + 28
        0x00002502:    4806        .H      LDR      r0,[pc,#24] ; [0x251c] = 0x40070000
        0x00002504:    6980        .i      LDR      r0,[r0,#0x18]
        0x00002506:    2171        q!      MOVS     r1,#0x71
        0x00002508:    4008        .@      ANDS     r0,r0,r1
        0x0000250a:    2800        .(      CMP      r0,#0
        0x0000250c:    d004        ..      BEQ      0x2518 ; UART0_IRQHandler + 68
        0x0000250e:    2109        .!      MOVS     r1,#9
        0x00002510:    0289        ..      LSLS     r1,r1,#10
        0x00002512:    4802        .H      LDR      r0,[pc,#8] ; [0x251c] = 0x40070000
        0x00002514:    f000f86c    ..l.    BL       UART_ClearIntFlag ; 0x25f0
        0x00002518:    bd10        ..      POP      {r4,pc}
    $d
        0x0000251a:    0000        ..      DCW    0
        0x0000251c:    40070000    ...@    DCD    1074200576
    $t
    i.UART0_Init
    UART0_Init
        0x00002520:    b510        ..      PUSH     {r4,lr}
        0x00002522:    4816        .H      LDR      r0,[pc,#88] ; [0x257c] = 0x4000010
        0x00002524:    f7fffde8    ....    BL       SYS_ResetModule ; 0x20f8
        0x00002528:    21e1        .!      MOVS     r1,#0xe1
        0x0000252a:    0249        I.      LSLS     r1,r1,#9
        0x0000252c:    4814        .H      LDR      r0,[pc,#80] ; [0x2580] = 0x40070000
        0x0000252e:    f000f8a3    ....    BL       UART_Open ; 0x2678
        0x00002532:    2111        .!      MOVS     r1,#0x11
        0x00002534:    4812        .H      LDR      r0,[pc,#72] ; [0x2580] = 0x40070000
        0x00002536:    f000f887    ....    BL       UART_EnableInt ; 0x2648
        0x0000253a:    200c        .       MOVS     r0,#0xc
        0x0000253c:    f000f9b2    ....    BL       __NVIC_EnableIRQ ; 0x28a4
        0x00002540:    f7fef8aa    ....    BL       CLK_GetCPUFreq ; 0x698
        0x00002544:    4604        .F      MOV      r4,r0
        0x00002546:    4621        !F      MOV      r1,r4
        0x00002548:    a00e        ..      ADR      r0,{pc}+0x3c ; 0x2584
        0x0000254a:    f000f96d    ..m.    BL       __0printf$8 ; 0x2828
        0x0000254e:    f7fef8ab    ....    BL       CLK_GetHCLKFreq ; 0x6a8
        0x00002552:    4604        .F      MOV      r4,r0
        0x00002554:    4621        !F      MOV      r1,r4
        0x00002556:    a012        ..      ADR      r0,{pc}+0x4a ; 0x25a0
        0x00002558:    f000f966    ..f.    BL       __0printf$8 ; 0x2828
        0x0000255c:    f7fef8ac    ....    BL       CLK_GetPCLK0Freq ; 0x6b8
        0x00002560:    4604        .F      MOV      r4,r0
        0x00002562:    4621        !F      MOV      r1,r4
        0x00002564:    a014        ..      ADR      r0,{pc}+0x54 ; 0x25b8
        0x00002566:    f000f95f    .._.    BL       __0printf$8 ; 0x2828
        0x0000256a:    f7fef8b5    ....    BL       CLK_GetPCLK1Freq ; 0x6d8
        0x0000256e:    4604        .F      MOV      r4,r0
        0x00002570:    4621        !F      MOV      r1,r4
        0x00002572:    a018        ..      ADR      r0,{pc}+0x62 ; 0x25d4
        0x00002574:    f000f958    ..X.    BL       __0printf$8 ; 0x2828
        0x00002578:    bd10        ..      POP      {r4,pc}
    $d
        0x0000257a:    0000        ..      DCW    0
        0x0000257c:    04000010    ....    DCD    67108880
        0x00002580:    40070000    ...@    DCD    1074200576
        0x00002584:    4c430a0d    ..CL    DCD    1279461901
        0x00002588:    65475f4b    K_Ge    DCD    1699176267
        0x0000258c:    55504374    tCPU    DCD    1431323508
        0x00002590:    71657246    Freq    DCD    1902473798
        0x00002594:    25203a20     : %    DCD    622869024
        0x00002598:    0a0d6438    8d..    DCD    168649784
        0x0000259c:    00000000    ....    DCD    0
        0x000025a0:    5f4b4c43    CLK_    DCD    1598770243
        0x000025a4:    48746547    GetH    DCD    1215587655
        0x000025a8:    464b4c43    CLKF    DCD    1179339843
        0x000025ac:    20716572    req     DCD    544302450
        0x000025b0:    3825203a    : %8    DCD    941957178
        0x000025b4:    000a0d64    d...    DCD    658788
        0x000025b8:    5f4b4c43    CLK_    DCD    1598770243
        0x000025bc:    50746547    GetP    DCD    1349805383
        0x000025c0:    304b4c43    CLK0    DCD    810241091
        0x000025c4:    71657246    Freq    DCD    1902473798
        0x000025c8:    25203a20     : %    DCD    622869024
        0x000025cc:    0a0d6438    8d..    DCD    168649784
        0x000025d0:    00000000    ....    DCD    0
        0x000025d4:    5f4b4c43    CLK_    DCD    1598770243
        0x000025d8:    50746547    GetP    DCD    1349805383
        0x000025dc:    314b4c43    CLK1    DCD    827018307
        0x000025e0:    71657246    Freq    DCD    1902473798
        0x000025e4:    25203a20     : %    DCD    622869024
        0x000025e8:    0a0d6438    8d..    DCD    168649784
        0x000025ec:    00000000    ....    DCD    0
    $t
    i.UART_ClearIntFlag
    UART_ClearIntFlag
        0x000025f0:    2201        ."      MOVS     r2,#1
        0x000025f2:    0612        ..      LSLS     r2,r2,#24
        0x000025f4:    400a        .@      ANDS     r2,r2,r1
        0x000025f6:    2a00        .*      CMP      r2,#0
        0x000025f8:    d002        ..      BEQ      0x2600 ; UART_ClearIntFlag + 16
        0x000025fa:    2201        ."      MOVS     r2,#1
        0x000025fc:    0412        ..      LSLS     r2,r2,#16
        0x000025fe:    61c2        .a      STR      r2,[r0,#0x1c]
        0x00002600:    2201        ."      MOVS     r2,#1
        0x00002602:    0292        ..      LSLS     r2,r2,#10
        0x00002604:    400a        .@      ANDS     r2,r2,r1
        0x00002606:    2a00        .*      CMP      r2,#0
        0x00002608:    d003        ..      BEQ      0x2612 ; UART_ClearIntFlag + 34
        0x0000260a:    2270        p"      MOVS     r2,#0x70
        0x0000260c:    6182        .a      STR      r2,[r0,#0x18]
        0x0000260e:    2208        ."      MOVS     r2,#8
        0x00002610:    6182        .a      STR      r2,[r0,#0x18]
        0x00002612:    2201        ."      MOVS     r2,#1
        0x00002614:    02d2        ..      LSLS     r2,r2,#11
        0x00002616:    400a        .@      ANDS     r2,r2,r1
        0x00002618:    2a00        .*      CMP      r2,#0
        0x0000261a:    d003        ..      BEQ      0x2624 ; UART_ClearIntFlag + 52
        0x0000261c:    6942        Bi      LDR      r2,[r0,#0x14]
        0x0000261e:    2301        .#      MOVS     r3,#1
        0x00002620:    431a        .C      ORRS     r2,r2,r3
        0x00002622:    6142        Ba      STR      r2,[r0,#0x14]
        0x00002624:    2201        ."      MOVS     r2,#1
        0x00002626:    0352        R.      LSLS     r2,r2,#13
        0x00002628:    400a        .@      ANDS     r2,r2,r1
        0x0000262a:    2a00        .*      CMP      r2,#0
        0x0000262c:    d001        ..      BEQ      0x2632 ; UART_ClearIntFlag + 66
        0x0000262e:    4a05        .J      LDR      r2,[pc,#20] ; [0x2644] = 0x1000001
        0x00002630:    6182        .a      STR      r2,[r0,#0x18]
        0x00002632:    2201        ."      MOVS     r2,#1
        0x00002634:    0392        ..      LSLS     r2,r2,#14
        0x00002636:    400a        .@      ANDS     r2,r2,r1
        0x00002638:    2a00        .*      CMP      r2,#0
        0x0000263a:    d001        ..      BEQ      0x2640 ; UART_ClearIntFlag + 80
        0x0000263c:    2203        ."      MOVS     r2,#3
        0x0000263e:    6442        Bd      STR      r2,[r0,#0x44]
        0x00002640:    4770        pG      BX       lr
    $d
        0x00002642:    0000        ..      DCW    0
        0x00002644:    01000001    ....    DCD    16777217
    $t
    i.UART_EnableInt
    UART_EnableInt
        0x00002648:    b510        ..      PUSH     {r4,lr}
        0x0000264a:    460a        .F      MOV      r2,r1
        0x0000264c:    6841        Ah      LDR      r1,[r0,#4]
        0x0000264e:    4311        .C      ORRS     r1,r1,r2
        0x00002650:    6041        A`      STR      r1,[r0,#4]
        0x00002652:    4907        .I      LDR      r1,[pc,#28] ; [0x2670] = 0x40070000
        0x00002654:    4288        .B      CMP      r0,r1
        0x00002656:    d10a        ..      BNE      0x266e ; UART_EnableInt + 38
        0x00002658:    210c        .!      MOVS     r1,#0xc
        0x0000265a:    2900        .)      CMP      r1,#0
        0x0000265c:    db05        ..      BLT      0x266a ; UART_EnableInt + 34
        0x0000265e:    06cc        ..      LSLS     r4,r1,#27
        0x00002660:    0ee4        ..      LSRS     r4,r4,#27
        0x00002662:    2301        .#      MOVS     r3,#1
        0x00002664:    40a3        .@      LSLS     r3,r3,r4
        0x00002666:    4c03        .L      LDR      r4,[pc,#12] ; [0x2674] = 0xe000e100
        0x00002668:    6023        #`      STR      r3,[r4,#0]
        0x0000266a:    bf00        ..      NOP      
        0x0000266c:    bf00        ..      NOP      
        0x0000266e:    bd10        ..      POP      {r4,pc}
    $d
        0x00002670:    40070000    ...@    DCD    1074200576
        0x00002674:    e000e100    ....    DCD    3758153984
    $t
    i.UART_Open
    UART_Open
        0x00002678:    b5f0        ..      PUSH     {r4-r7,lr}
        0x0000267a:    b089        ..      SUB      sp,sp,#0x24
        0x0000267c:    4604        .F      MOV      r4,r0
        0x0000267e:    460d        .F      MOV      r5,r1
        0x00002680:    2600        .&      MOVS     r6,#0
        0x00002682:    2700        .'      MOVS     r7,#0
        0x00002684:    2218        ."      MOVS     r2,#0x18
        0x00002686:    4928        (I      LDR      r1,[pc,#160] ; [0x2728] = 0x31a4
        0x00002688:    a803        ..      ADD      r0,sp,#0xc
        0x0000268a:    f7fdfd5b    ..[.    BL       __aeabi_memcpy ; 0x144
        0x0000268e:    2000        .       MOVS     r0,#0
        0x00002690:    9002        ..      STR      r0,[sp,#8]
        0x00002692:    4826        &H      LDR      r0,[pc,#152] ; [0x272c] = 0x40070000
        0x00002694:    4284        .B      CMP      r4,r0
        0x00002696:    d10a        ..      BNE      0x26ae ; UART_Open + 54
        0x00002698:    4825        %H      LDR      r0,[pc,#148] ; [0x2730] = 0x40000200
        0x0000269a:    6940        @i      LDR      r0,[r0,#0x14]
        0x0000269c:    0221        !.      LSLS     r1,r4,#8
        0x0000269e:    4008        .@      ANDS     r0,r0,r1
        0x000026a0:    0e06        ..      LSRS     r6,r0,#24
        0x000026a2:    4823        #H      LDR      r0,[pc,#140] ; [0x2730] = 0x40000200
        0x000026a4:    6a00        .j      LDR      r0,[r0,#0x20]
        0x000026a6:    210f        .!      MOVS     r1,#0xf
        0x000026a8:    0209        ..      LSLS     r1,r1,#8
        0x000026aa:    4008        .@      ANDS     r0,r0,r1
        0x000026ac:    0a07        ..      LSRS     r7,r0,#8
        0x000026ae:    2000        .       MOVS     r0,#0
        0x000026b0:    6320         c      STR      r0,[r4,#0x30]
        0x000026b2:    2003        .       MOVS     r0,#3
        0x000026b4:    60e0        .`      STR      r0,[r4,#0xc]
        0x000026b6:    68a0        .h      LDR      r0,[r4,#8]
        0x000026b8:    491e        .I      LDR      r1,[pc,#120] ; [0x2734] = 0xfff0ff0f
        0x000026ba:    4008        .@      ANDS     r0,r0,r1
        0x000026bc:    60a0        .`      STR      r0,[r4,#8]
        0x000026be:    2e04        ..      CMP      r6,#4
        0x000026c0:    d107        ..      BNE      0x26d2 ; UART_Open + 90
        0x000026c2:    481a        .H      LDR      r0,[pc,#104] ; [0x272c] = 0x40070000
        0x000026c4:    4284        .B      CMP      r4,r0
        0x000026c6:    d104        ..      BNE      0x26d2 ; UART_Open + 90
        0x000026c8:    f7fdfff6    ....    BL       CLK_GetPCLK0Freq ; 0x6b8
        0x000026cc:    00b1        ..      LSLS     r1,r6,#2
        0x000026ce:    aa03        ..      ADD      r2,sp,#0xc
        0x000026d0:    5050        PP      STR      r0,[r2,r1]
        0x000026d2:    2d00        .-      CMP      r5,#0
        0x000026d4:    d026        &.      BEQ      0x2724 ; UART_Open + 172
        0x000026d6:    00b1        ..      LSLS     r1,r6,#2
        0x000026d8:    aa03        ..      ADD      r2,sp,#0xc
        0x000026da:    5850        PX      LDR      r0,[r2,r1]
        0x000026dc:    1c79        y.      ADDS     r1,r7,#1
        0x000026de:    f7fdfd1b    ....    BL       __aeabi_uidiv ; 0x118
        0x000026e2:    0869        i.      LSRS     r1,r5,#1
        0x000026e4:    1840        @.      ADDS     r0,r0,r1
        0x000026e6:    4629        )F      MOV      r1,r5
        0x000026e8:    9001        ..      STR      r0,[sp,#4]
        0x000026ea:    f7fdfd15    ....    BL       __aeabi_uidiv ; 0x118
        0x000026ee:    1e80        ..      SUBS     r0,r0,#2
        0x000026f0:    9002        ..      STR      r0,[sp,#8]
        0x000026f2:    4911        .I      LDR      r1,[pc,#68] ; [0x2738] = 0xffff
        0x000026f4:    9802        ..      LDR      r0,[sp,#8]
        0x000026f6:    4288        .B      CMP      r0,r1
        0x000026f8:    d90f        ..      BLS      0x271a ; UART_Open + 162
        0x000026fa:    00b1        ..      LSLS     r1,r6,#2
        0x000026fc:    aa03        ..      ADD      r2,sp,#0xc
        0x000026fe:    5850        PX      LDR      r0,[r2,r1]
        0x00002700:    1c79        y.      ADDS     r1,r7,#1
        0x00002702:    f7fdfd09    ....    BL       __aeabi_uidiv ; 0x118
        0x00002706:    00e9        ..      LSLS     r1,r5,#3
        0x00002708:    1840        @.      ADDS     r0,r0,r1
        0x0000270a:    4629        )F      MOV      r1,r5
        0x0000270c:    9001        ..      STR      r0,[sp,#4]
        0x0000270e:    f7fdfd03    ....    BL       __aeabi_uidiv ; 0x118
        0x00002712:    0900        ..      LSRS     r0,r0,#4
        0x00002714:    1e80        ..      SUBS     r0,r0,#2
        0x00002716:    6260        `b      STR      r0,[r4,#0x24]
        0x00002718:    e004        ..      B        0x2724 ; UART_Open + 172
        0x0000271a:    2103        .!      MOVS     r1,#3
        0x0000271c:    0709        ..      LSLS     r1,r1,#28
        0x0000271e:    9802        ..      LDR      r0,[sp,#8]
        0x00002720:    4308        .C      ORRS     r0,r0,r1
        0x00002722:    6260        `b      STR      r0,[r4,#0x24]
        0x00002724:    b009        ..      ADD      sp,sp,#0x24
        0x00002726:    bdf0        ..      POP      {r4-r7,pc}
    $d
        0x00002728:    000031a4    .1..    DCD    12708
        0x0000272c:    40070000    ...@    DCD    1074200576
        0x00002730:    40000200    ...@    DCD    1073742336
        0x00002734:    fff0ff0f    ....    DCD    4293984015
        0x00002738:    0000ffff    ....    DCD    65535
    $t
    i.UARTx_Process
    UARTx_Process
        0x0000273c:    b510        ..      PUSH     {r4,lr}
        0x0000273e:    2400        .$      MOVS     r4,#0
        0x00002740:    482d        -H      LDR      r0,[pc,#180] ; [0x27f8] = 0x40070000
        0x00002742:    6800        .h      LDR      r0,[r0,#0]
        0x00002744:    b2c4        ..      UXTB     r4,r0
        0x00002746:    2c7f        .,      CMP      r4,#0x7f
        0x00002748:    dd03        ..      BLE      0x2752 ; UARTx_Process + 22
        0x0000274a:    a02c        ,.      ADR      r0,{pc}+0xb2 ; 0x27fc
        0x0000274c:    f000f86c    ..l.    BL       __0printf$8 ; 0x2828
        0x00002750:    e051        Q.      B        0x27f6 ; UARTx_Process + 186
        0x00002752:    4621        !F      MOV      r1,r4
        0x00002754:    a02e        ..      ADR      r0,{pc}+0xbc ; 0x2810
        0x00002756:    f000f867    ..g.    BL       __0printf$8 ; 0x2828
        0x0000275a:    4620         F      MOV      r0,r4
        0x0000275c:    2c38        8,      CMP      r4,#0x38
        0x0000275e:    d022        ".      BEQ      0x27a6 ; UARTx_Process + 106
        0x00002760:    dc08        ..      BGT      0x2774 ; UARTx_Process + 56
        0x00002762:    3830        08      SUBS     r0,r0,#0x30
        0x00002764:    0003        ..      MOVS     r3,r0
        0x00002766:    f000f86f    ..o.    BL       __ARM_common_switch8 ; 0x2848
    $d
        0x0000276a:    1608        ..      DCW    5640
        0x0000276c:    1a191817    ....    DCD    437852183
        0x00002770:    451d1c1b    ...E    DCD    1159535643
    $t
        0x00002774:    285a        Z(      CMP      r0,#0x5a
        0x00002776:    d037        7.      BEQ      0x27e8 ; UARTx_Process + 172
        0x00002778:    dc06        ..      BGT      0x2788 ; UARTx_Process + 76
        0x0000277a:    2839        9(      CMP      r0,#0x39
        0x0000277c:    d014        ..      BEQ      0x27a8 ; UARTx_Process + 108
        0x0000277e:    2841        A(      CMP      r0,#0x41
        0x00002780:    d01e        ..      BEQ      0x27c0 ; UARTx_Process + 132
        0x00002782:    2858        X(      CMP      r0,#0x58
        0x00002784:    d136        6.      BNE      0x27f4 ; UARTx_Process + 184
        0x00002786:    e02d        -.      B        0x27e4 ; UARTx_Process + 168
        0x00002788:    2861        a(      CMP      r0,#0x61
        0x0000278a:    d01a        ..      BEQ      0x27c2 ; UARTx_Process + 134
        0x0000278c:    2878        x(      CMP      r0,#0x78
        0x0000278e:    d02a        *.      BEQ      0x27e6 ; UARTx_Process + 170
        0x00002790:    287a        z(      CMP      r0,#0x7a
        0x00002792:    d12f        /.      BNE      0x27f4 ; UARTx_Process + 184
        0x00002794:    e029        ).      B        0x27ea ; UARTx_Process + 174
        0x00002796:    bf00        ..      NOP      
        0x00002798:    bf00        ..      NOP      
        0x0000279a:    bf00        ..      NOP      
        0x0000279c:    bf00        ..      NOP      
        0x0000279e:    bf00        ..      NOP      
        0x000027a0:    bf00        ..      NOP      
        0x000027a2:    bf00        ..      NOP      
        0x000027a4:    bf00        ..      NOP      
        0x000027a6:    bf00        ..      NOP      
        0x000027a8:    481d        .H      LDR      r0,[pc,#116] ; [0x2820] = 0x20000020
        0x000027aa:    6800        .h      LDR      r0,[r0,#0]
        0x000027ac:    2104        .!      MOVS     r1,#4
        0x000027ae:    4388        .C      BICS     r0,r0,r1
        0x000027b0:    1d00        ..      ADDS     r0,r0,#4
        0x000027b2:    491b        .I      LDR      r1,[pc,#108] ; [0x2820] = 0x20000020
        0x000027b4:    6008        .`      STR      r0,[r1,#0]
        0x000027b6:    4620         F      MOV      r0,r4
        0x000027b8:    3830        08      SUBS     r0,r0,#0x30
        0x000027ba:    491a        .I      LDR      r1,[pc,#104] ; [0x2824] = 0x2000003c
        0x000027bc:    7008        .p      STRB     r0,[r1,#0]
        0x000027be:    e019        ..      B        0x27f4 ; UARTx_Process + 184
        0x000027c0:    bf00        ..      NOP      
        0x000027c2:    4817        .H      LDR      r0,[pc,#92] ; [0x2820] = 0x20000020
        0x000027c4:    6800        .h      LDR      r0,[r0,#0]
        0x000027c6:    2108        .!      MOVS     r1,#8
        0x000027c8:    4388        .C      BICS     r0,r0,r1
        0x000027ca:    4915        .I      LDR      r1,[pc,#84] ; [0x2820] = 0x20000020
        0x000027cc:    7809        .x      LDRB     r1,[r1,#0]
        0x000027ce:    0709        ..      LSLS     r1,r1,#28
        0x000027d0:    0fc9        ..      LSRS     r1,r1,#31
        0x000027d2:    2201        ."      MOVS     r2,#1
        0x000027d4:    4051        Q@      EORS     r1,r1,r2
        0x000027d6:    00c9        ..      LSLS     r1,r1,#3
        0x000027d8:    2208        ."      MOVS     r2,#8
        0x000027da:    4011        .@      ANDS     r1,r1,r2
        0x000027dc:    4308        .C      ORRS     r0,r0,r1
        0x000027de:    4910        .I      LDR      r1,[pc,#64] ; [0x2820] = 0x20000020
        0x000027e0:    6008        .`      STR      r0,[r1,#0]
        0x000027e2:    e007        ..      B        0x27f4 ; UARTx_Process + 184
        0x000027e4:    bf00        ..      NOP      
        0x000027e6:    bf00        ..      NOP      
        0x000027e8:    bf00        ..      NOP      
        0x000027ea:    f7fffc9d    ....    BL       SYS_UnlockReg ; 0x2128
        0x000027ee:    f7fffc7b    ..{.    BL       SYS_ResetChip ; 0x20e8
        0x000027f2:    bf00        ..      NOP      
        0x000027f4:    bf00        ..      NOP      
        0x000027f6:    bd10        ..      POP      {r4,pc}
    $d
        0x000027f8:    40070000    ...@    DCD    1074200576
        0x000027fc:    61766e69    inva    DCD    1635151465
        0x00002800:    2064696c    lid     DCD    543451500
        0x00002804:    6d6d6f63    comm    DCD    1835888483
        0x00002808:    0d646e61    and.    DCD    224685665
        0x0000280c:    0000000a    ....    DCD    10
        0x00002810:    73657270    pres    DCD    1936028272
        0x00002814:    203a2073    s :     DCD    540680307
        0x00002818:    0a0d6325    %c..    DCD    168649509
        0x0000281c:    00000000    ....    DCD    0
        0x00002820:    20000020     ..     DCD    536870944
        0x00002824:    2000003c    <..     DCD    536870972
    $t
    i.__0printf$8
    __0printf$8
    __1printf$8
    __2printf
        0x00002828:    b40f        ..      PUSH     {r0-r3}
        0x0000282a:    b510        ..      PUSH     {r4,lr}
        0x0000282c:    a903        ..      ADD      r1,sp,#0xc
        0x0000282e:    4b04        .K      LDR      r3,[pc,#16] ; [0x2840] = 0x3011
        0x00002830:    4a04        .J      LDR      r2,[pc,#16] ; [0x2844] = 0x2000000c
        0x00002832:    9802        ..      LDR      r0,[sp,#8]
        0x00002834:    f000f88e    ....    BL       _printf_core ; 0x2954
        0x00002838:    bc10        ..      POP      {r4}
        0x0000283a:    bc08        ..      POP      {r3}
        0x0000283c:    b004        ..      ADD      sp,sp,#0x10
        0x0000283e:    4718        .G      BX       r3
    $d
        0x00002840:    00003011    .0..    DCD    12305
        0x00002844:    2000000c    ...     DCD    536870924
    $t
    i.__ARM_common_switch8
    __ARM_common_switch8
        0x00002848:    b430        0.      PUSH     {r4,r5}
        0x0000284a:    4674        tF      MOV      r4,lr
        0x0000284c:    1e64        d.      SUBS     r4,r4,#1
        0x0000284e:    7825        %x      LDRB     r5,[r4,#0]
        0x00002850:    1c64        d.      ADDS     r4,r4,#1
        0x00002852:    42ab        .B      CMP      r3,r5
        0x00002854:    d304        ..      BCC      0x2860 ; __ARM_common_switch8 + 24
        0x00002856:    5d63        c]      LDRB     r3,[r4,r5]
        0x00002858:    005b        [.      LSLS     r3,r3,#1
        0x0000285a:    18e3        ..      ADDS     r3,r4,r3
        0x0000285c:    bc30        0.      POP      {r4,r5}
        0x0000285e:    4718        .G      BX       r3
        0x00002860:    461d        .F      MOV      r5,r3
        0x00002862:    e7f8        ..      B        0x2856 ; __ARM_common_switch8 + 14
    i.__I2Cx_Slave_LogBuffer__
    __I2Cx_Slave_LogBuffer__
        0x00002864:    4770        pG      BX       lr
    i.__I2Cx_Slave_Log__
    __I2Cx_Slave_Log__
        0x00002866:    4770        pG      BX       lr
    i.__I2Cx_Slave_StateMachine_Log__
    __I2Cx_Slave_StateMachine_Log__
        0x00002868:    4770        pG      BX       lr
        0x0000286a:    0000        ..      MOVS     r0,r0
    i.__NVIC_DisableIRQ
    __NVIC_DisableIRQ
        0x0000286c:    2800        .(      CMP      r0,#0
        0x0000286e:    db15        ..      BLT      0x289c ; __NVIC_DisableIRQ + 48
        0x00002870:    06c2        ..      LSLS     r2,r0,#27
        0x00002872:    0ed2        ..      LSRS     r2,r2,#27
        0x00002874:    2101        .!      MOVS     r1,#1
        0x00002876:    4091        .@      LSLS     r1,r1,r2
        0x00002878:    4a09        .J      LDR      r2,[pc,#36] ; [0x28a0] = 0xe000e180
        0x0000287a:    6011        .`      STR      r1,[r2,#0]
        0x0000287c:    bf00        ..      NOP      
        0x0000287e:    bf00        ..      NOP      
        0x00002880:    bf00        ..      NOP      
        0x00002882:    f3bf8f4f    ..O.    DSB      
        0x00002886:    bf00        ..      NOP      
        0x00002888:    bf00        ..      NOP      
        0x0000288a:    bf00        ..      NOP      
        0x0000288c:    bf00        ..      NOP      
        0x0000288e:    bf00        ..      NOP      
        0x00002890:    bf00        ..      NOP      
        0x00002892:    f3bf8f6f    ..o.    ISB      
        0x00002896:    bf00        ..      NOP      
        0x00002898:    bf00        ..      NOP      
        0x0000289a:    bf00        ..      NOP      
        0x0000289c:    4770        pG      BX       lr
    $d
        0x0000289e:    0000        ..      DCW    0
        0x000028a0:    e000e180    ....    DCD    3758154112
    $t
    i.__NVIC_EnableIRQ
    __NVIC_EnableIRQ
        0x000028a4:    2800        .(      CMP      r0,#0
        0x000028a6:    db05        ..      BLT      0x28b4 ; __NVIC_EnableIRQ + 16
        0x000028a8:    06c2        ..      LSLS     r2,r0,#27
        0x000028aa:    0ed2        ..      LSRS     r2,r2,#27
        0x000028ac:    2101        .!      MOVS     r1,#1
        0x000028ae:    4091        .@      LSLS     r1,r1,r2
        0x000028b0:    4a01        .J      LDR      r2,[pc,#4] ; [0x28b8] = 0xe000e100
        0x000028b2:    6011        .`      STR      r1,[r2,#0]
        0x000028b4:    4770        pG      BX       lr
    $d
        0x000028b6:    0000        ..      DCW    0
        0x000028b8:    e000e100    ....    DCD    3758153984
    $t
    i.__NVIC_SetPriority
    __NVIC_SetPriority
        0x000028bc:    b510        ..      PUSH     {r4,lr}
        0x000028be:    2800        .(      CMP      r0,#0
        0x000028c0:    db19        ..      BLT      0x28f6 ; __NVIC_SetPriority + 58
        0x000028c2:    4a1a        .J      LDR      r2,[pc,#104] ; [0x292c] = 0xe000e100
        0x000028c4:    2303        .#      MOVS     r3,#3
        0x000028c6:    021b        ..      LSLS     r3,r3,#8
        0x000028c8:    18d2        ..      ADDS     r2,r2,r3
        0x000028ca:    0883        ..      LSRS     r3,r0,#2
        0x000028cc:    009b        ..      LSLS     r3,r3,#2
        0x000028ce:    58d2        .X      LDR      r2,[r2,r3]
        0x000028d0:    0783        ..      LSLS     r3,r0,#30
        0x000028d2:    0edc        ..      LSRS     r4,r3,#27
        0x000028d4:    23ff        .#      MOVS     r3,#0xff
        0x000028d6:    40a3        .@      LSLS     r3,r3,r4
        0x000028d8:    439a        .C      BICS     r2,r2,r3
        0x000028da:    078b        ..      LSLS     r3,r1,#30
        0x000028dc:    0e1b        ..      LSRS     r3,r3,#24
        0x000028de:    0784        ..      LSLS     r4,r0,#30
        0x000028e0:    0ee4        ..      LSRS     r4,r4,#27
        0x000028e2:    40a3        .@      LSLS     r3,r3,r4
        0x000028e4:    431a        .C      ORRS     r2,r2,r3
        0x000028e6:    4b11        .K      LDR      r3,[pc,#68] ; [0x292c] = 0xe000e100
        0x000028e8:    2403        .$      MOVS     r4,#3
        0x000028ea:    0224        $.      LSLS     r4,r4,#8
        0x000028ec:    191b        ..      ADDS     r3,r3,r4
        0x000028ee:    0884        ..      LSRS     r4,r0,#2
        0x000028f0:    00a4        ..      LSLS     r4,r4,#2
        0x000028f2:    511a        .Q      STR      r2,[r3,r4]
        0x000028f4:    e018        ..      B        0x2928 ; __NVIC_SetPriority + 108
        0x000028f6:    4a0e        .J      LDR      r2,[pc,#56] ; [0x2930] = 0xe000ed1c
        0x000028f8:    0703        ..      LSLS     r3,r0,#28
        0x000028fa:    0f1b        ..      LSRS     r3,r3,#28
        0x000028fc:    3b08        .;      SUBS     r3,r3,#8
        0x000028fe:    089b        ..      LSRS     r3,r3,#2
        0x00002900:    009b        ..      LSLS     r3,r3,#2
        0x00002902:    58d2        .X      LDR      r2,[r2,r3]
        0x00002904:    0783        ..      LSLS     r3,r0,#30
        0x00002906:    0edc        ..      LSRS     r4,r3,#27
        0x00002908:    23ff        .#      MOVS     r3,#0xff
        0x0000290a:    40a3        .@      LSLS     r3,r3,r4
        0x0000290c:    439a        .C      BICS     r2,r2,r3
        0x0000290e:    078b        ..      LSLS     r3,r1,#30
        0x00002910:    0e1b        ..      LSRS     r3,r3,#24
        0x00002912:    0784        ..      LSLS     r4,r0,#30
        0x00002914:    0ee4        ..      LSRS     r4,r4,#27
        0x00002916:    40a3        .@      LSLS     r3,r3,r4
        0x00002918:    431a        .C      ORRS     r2,r2,r3
        0x0000291a:    4b05        .K      LDR      r3,[pc,#20] ; [0x2930] = 0xe000ed1c
        0x0000291c:    0704        ..      LSLS     r4,r0,#28
        0x0000291e:    0f24        $.      LSRS     r4,r4,#28
        0x00002920:    3c08        .<      SUBS     r4,r4,#8
        0x00002922:    08a4        ..      LSRS     r4,r4,#2
        0x00002924:    00a4        ..      LSLS     r4,r4,#2
        0x00002926:    511a        .Q      STR      r2,[r3,r4]
        0x00002928:    bd10        ..      POP      {r4,pc}
    $d
        0x0000292a:    0000        ..      DCW    0
        0x0000292c:    e000e100    ....    DCD    3758153984
        0x00002930:    e000ed1c    ....    DCD    3758157084
    $t
    i.__scatterload_copy
    __scatterload_copy
        0x00002934:    e002        ..      B        0x293c ; __scatterload_copy + 8
        0x00002936:    c808        ..      LDM      r0!,{r3}
        0x00002938:    1f12        ..      SUBS     r2,r2,#4
        0x0000293a:    c108        ..      STM      r1!,{r3}
        0x0000293c:    2a00        .*      CMP      r2,#0
        0x0000293e:    d1fa        ..      BNE      0x2936 ; __scatterload_copy + 2
        0x00002940:    4770        pG      BX       lr
    i.__scatterload_null
    __scatterload_null
        0x00002942:    4770        pG      BX       lr
    i.__scatterload_zeroinit
    __scatterload_zeroinit
        0x00002944:    2000        .       MOVS     r0,#0
        0x00002946:    e001        ..      B        0x294c ; __scatterload_zeroinit + 8
        0x00002948:    c101        ..      STM      r1!,{r0}
        0x0000294a:    1f12        ..      SUBS     r2,r2,#4
        0x0000294c:    2a00        .*      CMP      r2,#0
        0x0000294e:    d1fb        ..      BNE      0x2948 ; __scatterload_zeroinit + 4
        0x00002950:    4770        pG      BX       lr
        0x00002952:    0000        ..      MOVS     r0,r0
    i._printf_core
    _printf_core
        0x00002954:    b5ff        ..      PUSH     {r0-r7,lr}
        0x00002956:    b091        ..      SUB      sp,sp,#0x44
        0x00002958:    460f        .F      MOV      r7,r1
        0x0000295a:    4605        .F      MOV      r5,r0
        0x0000295c:    2600        .&      MOVS     r6,#0
        0x0000295e:    e006        ..      B        0x296e ; _printf_core + 26
        0x00002960:    2825        %(      CMP      r0,#0x25
        0x00002962:    d00a        ..      BEQ      0x297a ; _printf_core + 38
        0x00002964:    9a14        ..      LDR      r2,[sp,#0x50]
        0x00002966:    9913        ..      LDR      r1,[sp,#0x4c]
        0x00002968:    4790        .G      BLX      r2
        0x0000296a:    1c6d        m.      ADDS     r5,r5,#1
        0x0000296c:    1c76        v.      ADDS     r6,r6,#1
        0x0000296e:    7828        (x      LDRB     r0,[r5,#0]
        0x00002970:    2800        .(      CMP      r0,#0
        0x00002972:    d1f5        ..      BNE      0x2960 ; _printf_core + 12
        0x00002974:    4630        0F      MOV      r0,r6
        0x00002976:    b015        ..      ADD      sp,sp,#0x54
        0x00002978:    bdf0        ..      POP      {r4-r7,pc}
        0x0000297a:    2400        .$      MOVS     r4,#0
        0x0000297c:    9400        ..      STR      r4,[sp,#0]
        0x0000297e:    2101        .!      MOVS     r1,#1
        0x00002980:    4af3        .J      LDR      r2,[pc,#972] ; [0x2d50] = 0x12809
        0x00002982:    9402        ..      STR      r4,[sp,#8]
        0x00002984:    e000        ..      B        0x2988 ; _printf_core + 52
        0x00002986:    4304        .C      ORRS     r4,r4,r0
        0x00002988:    1c6d        m.      ADDS     r5,r5,#1
        0x0000298a:    782b        +x      LDRB     r3,[r5,#0]
        0x0000298c:    4608        .F      MOV      r0,r1
        0x0000298e:    3b20         ;      SUBS     r3,r3,#0x20
        0x00002990:    4098        .@      LSLS     r0,r0,r3
        0x00002992:    4210        .B      TST      r0,r2
        0x00002994:    d1f7        ..      BNE      0x2986 ; _printf_core + 50
        0x00002996:    7828        (x      LDRB     r0,[r5,#0]
        0x00002998:    282a        *(      CMP      r0,#0x2a
        0x0000299a:    d00e        ..      BEQ      0x29ba ; _printf_core + 102
        0x0000299c:    2102        .!      MOVS     r1,#2
        0x0000299e:    7828        (x      LDRB     r0,[r5,#0]
        0x000029a0:    4602        .F      MOV      r2,r0
        0x000029a2:    3a30        0:      SUBS     r2,r2,#0x30
        0x000029a4:    2a09        .*      CMP      r2,#9
        0x000029a6:    d815        ..      BHI      0x29d4 ; _printf_core + 128
        0x000029a8:    9a00        ..      LDR      r2,[sp,#0]
        0x000029aa:    230a        .#      MOVS     r3,#0xa
        0x000029ac:    435a        ZC      MULS     r2,r3,r2
        0x000029ae:    3a30        0:      SUBS     r2,r2,#0x30
        0x000029b0:    1880        ..      ADDS     r0,r0,r2
        0x000029b2:    430c        .C      ORRS     r4,r4,r1
        0x000029b4:    1c6d        m.      ADDS     r5,r5,#1
        0x000029b6:    9000        ..      STR      r0,[sp,#0]
        0x000029b8:    e7f1        ..      B        0x299e ; _printf_core + 74
        0x000029ba:    cf01        ..      LDM      r7!,{r0}
        0x000029bc:    9000        ..      STR      r0,[sp,#0]
        0x000029be:    2800        .(      CMP      r0,#0
        0x000029c0:    da05        ..      BGE      0x29ce ; _printf_core + 122
        0x000029c2:    2001        .       MOVS     r0,#1
        0x000029c4:    0340        @.      LSLS     r0,r0,#13
        0x000029c6:    4304        .C      ORRS     r4,r4,r0
        0x000029c8:    9800        ..      LDR      r0,[sp,#0]
        0x000029ca:    4240        @B      RSBS     r0,r0,#0
        0x000029cc:    9000        ..      STR      r0,[sp,#0]
        0x000029ce:    2002        .       MOVS     r0,#2
        0x000029d0:    4304        .C      ORRS     r4,r4,r0
        0x000029d2:    1c6d        m.      ADDS     r5,r5,#1
        0x000029d4:    7828        (x      LDRB     r0,[r5,#0]
        0x000029d6:    282e        .(      CMP      r0,#0x2e
        0x000029d8:    d115        ..      BNE      0x2a06 ; _printf_core + 178
        0x000029da:    2004        .       MOVS     r0,#4
        0x000029dc:    4304        .C      ORRS     r4,r4,r0
        0x000029de:    7868        hx      LDRB     r0,[r5,#1]
        0x000029e0:    1c6d        m.      ADDS     r5,r5,#1
        0x000029e2:    282a        *(      CMP      r0,#0x2a
        0x000029e4:    d10a        ..      BNE      0x29fc ; _printf_core + 168
        0x000029e6:    cf01        ..      LDM      r7!,{r0}
        0x000029e8:    1c6d        m.      ADDS     r5,r5,#1
        0x000029ea:    9002        ..      STR      r0,[sp,#8]
        0x000029ec:    e00b        ..      B        0x2a06 ; _printf_core + 178
        0x000029ee:    9902        ..      LDR      r1,[sp,#8]
        0x000029f0:    220a        ."      MOVS     r2,#0xa
        0x000029f2:    4351        QC      MULS     r1,r2,r1
        0x000029f4:    3930        09      SUBS     r1,r1,#0x30
        0x000029f6:    1840        @.      ADDS     r0,r0,r1
        0x000029f8:    1c6d        m.      ADDS     r5,r5,#1
        0x000029fa:    9002        ..      STR      r0,[sp,#8]
        0x000029fc:    7828        (x      LDRB     r0,[r5,#0]
        0x000029fe:    4601        .F      MOV      r1,r0
        0x00002a00:    3930        09      SUBS     r1,r1,#0x30
        0x00002a02:    2909        .)      CMP      r1,#9
        0x00002a04:    d9f3        ..      BLS      0x29ee ; _printf_core + 154
        0x00002a06:    7828        (x      LDRB     r0,[r5,#0]
        0x00002a08:    286c        l(      CMP      r0,#0x6c
        0x00002a0a:    d010        ..      BEQ      0x2a2e ; _printf_core + 218
        0x00002a0c:    dc06        ..      BGT      0x2a1c ; _printf_core + 200
        0x00002a0e:    284c        L(      CMP      r0,#0x4c
        0x00002a10:    d01a        ..      BEQ      0x2a48 ; _printf_core + 244
        0x00002a12:    2868        h(      CMP      r0,#0x68
        0x00002a14:    d00e        ..      BEQ      0x2a34 ; _printf_core + 224
        0x00002a16:    286a        j(      CMP      r0,#0x6a
        0x00002a18:    d117        ..      BNE      0x2a4a ; _printf_core + 246
        0x00002a1a:    e004        ..      B        0x2a26 ; _printf_core + 210
        0x00002a1c:    2874        t(      CMP      r0,#0x74
        0x00002a1e:    d013        ..      BEQ      0x2a48 ; _printf_core + 244
        0x00002a20:    287a        z(      CMP      r0,#0x7a
        0x00002a22:    d112        ..      BNE      0x2a4a ; _printf_core + 246
        0x00002a24:    e010        ..      B        0x2a48 ; _printf_core + 244
        0x00002a26:    2001        .       MOVS     r0,#1
        0x00002a28:    0540        @.      LSLS     r0,r0,#21
        0x00002a2a:    4304        .C      ORRS     r4,r4,r0
        0x00002a2c:    e00c        ..      B        0x2a48 ; _printf_core + 244
        0x00002a2e:    2101        .!      MOVS     r1,#1
        0x00002a30:    0509        ..      LSLS     r1,r1,#20
        0x00002a32:    e001        ..      B        0x2a38 ; _printf_core + 228
        0x00002a34:    2103        .!      MOVS     r1,#3
        0x00002a36:    0509        ..      LSLS     r1,r1,#20
        0x00002a38:    430c        .C      ORRS     r4,r4,r1
        0x00002a3a:    7869        ix      LDRB     r1,[r5,#1]
        0x00002a3c:    4281        .B      CMP      r1,r0
        0x00002a3e:    d103        ..      BNE      0x2a48 ; _printf_core + 244
        0x00002a40:    2001        .       MOVS     r0,#1
        0x00002a42:    0500        ..      LSLS     r0,r0,#20
        0x00002a44:    1824        $.      ADDS     r4,r4,r0
        0x00002a46:    1c6d        m.      ADDS     r5,r5,#1
        0x00002a48:    1c6d        m.      ADDS     r5,r5,#1
        0x00002a4a:    7828        (x      LDRB     r0,[r5,#0]
        0x00002a4c:    9003        ..      STR      r0,[sp,#0xc]
        0x00002a4e:    286e        n(      CMP      r0,#0x6e
        0x00002a50:    d01e        ..      BEQ      0x2a90 ; _printf_core + 316
        0x00002a52:    dc0c        ..      BGT      0x2a6e ; _printf_core + 282
        0x00002a54:    2863        c(      CMP      r0,#0x63
        0x00002a56:    d031        1.      BEQ      0x2abc ; _printf_core + 360
        0x00002a58:    dc04        ..      BGT      0x2a64 ; _printf_core + 272
        0x00002a5a:    2800        .(      CMP      r0,#0
        0x00002a5c:    d08a        ..      BEQ      0x2974 ; _printf_core + 32
        0x00002a5e:    2858        X(      CMP      r0,#0x58
        0x00002a60:    d111        ..      BNE      0x2a86 ; _printf_core + 306
        0x00002a62:    e0b2        ..      B        0x2bca ; _printf_core + 630
        0x00002a64:    2864        d(      CMP      r0,#0x64
        0x00002a66:    d07b        {.      BEQ      0x2b60 ; _printf_core + 524
        0x00002a68:    2869        i(      CMP      r0,#0x69
        0x00002a6a:    d10c        ..      BNE      0x2a86 ; _printf_core + 306
        0x00002a6c:    e078        x.      B        0x2b60 ; _printf_core + 524
        0x00002a6e:    2873        s(      CMP      r0,#0x73
        0x00002a70:    d02d        -.      BEQ      0x2ace ; _printf_core + 378
        0x00002a72:    dc04        ..      BGT      0x2a7e ; _printf_core + 298
        0x00002a74:    286f        o(      CMP      r0,#0x6f
        0x00002a76:    d070        p.      BEQ      0x2b5a ; _printf_core + 518
        0x00002a78:    2870        p(      CMP      r0,#0x70
        0x00002a7a:    d104        ..      BNE      0x2a86 ; _printf_core + 306
        0x00002a7c:    e0a7        ..      B        0x2bce ; _printf_core + 634
        0x00002a7e:    2875        u(      CMP      r0,#0x75
        0x00002a80:    d06c        l.      BEQ      0x2b5c ; _printf_core + 520
        0x00002a82:    2878        x(      CMP      r0,#0x78
        0x00002a84:    d06b        k.      BEQ      0x2b5e ; _printf_core + 522
        0x00002a86:    9a14        ..      LDR      r2,[sp,#0x50]
        0x00002a88:    9913        ..      LDR      r1,[sp,#0x4c]
        0x00002a8a:    4790        .G      BLX      r2
        0x00002a8c:    1c76        v.      ADDS     r6,r6,#1
        0x00002a8e:    e062        b.      B        0x2b56 ; _printf_core + 514
        0x00002a90:    0260        `.      LSLS     r0,r4,#9
        0x00002a92:    0f40        @.      LSRS     r0,r0,#29
        0x00002a94:    2802        .(      CMP      r0,#2
        0x00002a96:    d007        ..      BEQ      0x2aa8 ; _printf_core + 340
        0x00002a98:    2803        .(      CMP      r0,#3
        0x00002a9a:    d00a        ..      BEQ      0x2ab2 ; _printf_core + 350
        0x00002a9c:    2804        .(      CMP      r0,#4
        0x00002a9e:    6838        8h      LDR      r0,[r7,#0]
        0x00002aa0:    d00a        ..      BEQ      0x2ab8 ; _printf_core + 356
        0x00002aa2:    6006        .`      STR      r6,[r0,#0]
        0x00002aa4:    1d3f        ?.      ADDS     r7,r7,#4
        0x00002aa6:    e056        V.      B        0x2b56 ; _printf_core + 514
        0x00002aa8:    6838        8h      LDR      r0,[r7,#0]
        0x00002aaa:    17f1        ..      ASRS     r1,r6,#31
        0x00002aac:    6006        .`      STR      r6,[r0,#0]
        0x00002aae:    6041        A`      STR      r1,[r0,#4]
        0x00002ab0:    e7f8        ..      B        0x2aa4 ; _printf_core + 336
        0x00002ab2:    6838        8h      LDR      r0,[r7,#0]
        0x00002ab4:    8006        ..      STRH     r6,[r0,#0]
        0x00002ab6:    e7f5        ..      B        0x2aa4 ; _printf_core + 336
        0x00002ab8:    7006        .p      STRB     r6,[r0,#0]
        0x00002aba:    e7f3        ..      B        0x2aa4 ; _printf_core + 336
        0x00002abc:    7838        8x      LDRB     r0,[r7,#0]
        0x00002abe:    4669        iF      MOV      r1,sp
        0x00002ac0:    7408        .t      STRB     r0,[r1,#0x10]
        0x00002ac2:    2000        .       MOVS     r0,#0
        0x00002ac4:    7448        Ht      STRB     r0,[r1,#0x11]
        0x00002ac6:    a804        ..      ADD      r0,sp,#0x10
        0x00002ac8:    9003        ..      STR      r0,[sp,#0xc]
        0x00002aca:    2001        .       MOVS     r0,#1
        0x00002acc:    e003        ..      B        0x2ad6 ; _printf_core + 386
        0x00002ace:    6838        8h      LDR      r0,[r7,#0]
        0x00002ad0:    9003        ..      STR      r0,[sp,#0xc]
        0x00002ad2:    2000        .       MOVS     r0,#0
        0x00002ad4:    43c0        .C      MVNS     r0,r0
        0x00002ad6:    1d3f        ?.      ADDS     r7,r7,#4
        0x00002ad8:    0761        a.      LSLS     r1,r4,#29
        0x00002ada:    d50f        ..      BPL      0x2afc ; _printf_core + 424
        0x00002adc:    2100        .!      MOVS     r1,#0
        0x00002ade:    e001        ..      B        0x2ae4 ; _printf_core + 400
        0x00002ae0:    9901        ..      LDR      r1,[sp,#4]
        0x00002ae2:    1c49        I.      ADDS     r1,r1,#1
        0x00002ae4:    9a02        ..      LDR      r2,[sp,#8]
        0x00002ae6:    9101        ..      STR      r1,[sp,#4]
        0x00002ae8:    4291        .B      CMP      r1,r2
        0x00002aea:    da13        ..      BGE      0x2b14 ; _printf_core + 448
        0x00002aec:    4281        .B      CMP      r1,r0
        0x00002aee:    dbf7        ..      BLT      0x2ae0 ; _printf_core + 396
        0x00002af0:    9a01        ..      LDR      r2,[sp,#4]
        0x00002af2:    9903        ..      LDR      r1,[sp,#0xc]
        0x00002af4:    5c89        .\      LDRB     r1,[r1,r2]
        0x00002af6:    2900        .)      CMP      r1,#0
        0x00002af8:    d1f2        ..      BNE      0x2ae0 ; _printf_core + 396
        0x00002afa:    e00b        ..      B        0x2b14 ; _printf_core + 448
        0x00002afc:    2100        .!      MOVS     r1,#0
        0x00002afe:    e001        ..      B        0x2b04 ; _printf_core + 432
        0x00002b00:    9901        ..      LDR      r1,[sp,#4]
        0x00002b02:    1c49        I.      ADDS     r1,r1,#1
        0x00002b04:    9101        ..      STR      r1,[sp,#4]
        0x00002b06:    4281        .B      CMP      r1,r0
        0x00002b08:    dbfa        ..      BLT      0x2b00 ; _printf_core + 428
        0x00002b0a:    9a01        ..      LDR      r2,[sp,#4]
        0x00002b0c:    9903        ..      LDR      r1,[sp,#0xc]
        0x00002b0e:    5c89        .\      LDRB     r1,[r1,r2]
        0x00002b10:    2900        .)      CMP      r1,#0
        0x00002b12:    d1f5        ..      BNE      0x2b00 ; _printf_core + 428
        0x00002b14:    9901        ..      LDR      r1,[sp,#4]
        0x00002b16:    9800        ..      LDR      r0,[sp,#0]
        0x00002b18:    9a13        ..      LDR      r2,[sp,#0x4c]
        0x00002b1a:    1a40        @.      SUBS     r0,r0,r1
        0x00002b1c:    9000        ..      STR      r0,[sp,#0]
        0x00002b1e:    4621        !F      MOV      r1,r4
        0x00002b20:    9b14        ..      LDR      r3,[sp,#0x50]
        0x00002b22:    f000f93b    ..;.    BL       _printf_pre_padding ; 0x2d9c
        0x00002b26:    9901        ..      LDR      r1,[sp,#4]
        0x00002b28:    1980        ..      ADDS     r0,r0,r6
        0x00002b2a:    1846        F.      ADDS     r6,r0,r1
        0x00002b2c:    e007        ..      B        0x2b3e ; _printf_core + 490
        0x00002b2e:    9803        ..      LDR      r0,[sp,#0xc]
        0x00002b30:    9903        ..      LDR      r1,[sp,#0xc]
        0x00002b32:    7800        .x      LDRB     r0,[r0,#0]
        0x00002b34:    1c49        I.      ADDS     r1,r1,#1
        0x00002b36:    9103        ..      STR      r1,[sp,#0xc]
        0x00002b38:    9a14        ..      LDR      r2,[sp,#0x50]
        0x00002b3a:    9913        ..      LDR      r1,[sp,#0x4c]
        0x00002b3c:    4790        .G      BLX      r2
        0x00002b3e:    9801        ..      LDR      r0,[sp,#4]
        0x00002b40:    1e40        @.      SUBS     r0,r0,#1
        0x00002b42:    9001        ..      STR      r0,[sp,#4]
        0x00002b44:    1c40        @.      ADDS     r0,r0,#1
        0x00002b46:    d1f2        ..      BNE      0x2b2e ; _printf_core + 474
        0x00002b48:    4621        !F      MOV      r1,r4
        0x00002b4a:    9b14        ..      LDR      r3,[sp,#0x50]
        0x00002b4c:    9a13        ..      LDR      r2,[sp,#0x4c]
        0x00002b4e:    9800        ..      LDR      r0,[sp,#0]
        0x00002b50:    f000f914    ....    BL       _printf_post_padding ; 0x2d7c
        0x00002b54:    1986        ..      ADDS     r6,r0,r6
        0x00002b56:    1c6d        m.      ADDS     r5,r5,#1
        0x00002b58:    e709        ..      B        0x296e ; _printf_core + 26
        0x00002b5a:    e041        A.      B        0x2be0 ; _printf_core + 652
        0x00002b5c:    e033        3.      B        0x2bc6 ; _printf_core + 626
        0x00002b5e:    e034        4.      B        0x2bca ; _printf_core + 630
        0x00002b60:    200a        .       MOVS     r0,#0xa
        0x00002b62:    2100        .!      MOVS     r1,#0
        0x00002b64:    9004        ..      STR      r0,[sp,#0x10]
        0x00002b66:    9105        ..      STR      r1,[sp,#0x14]
        0x00002b68:    0260        `.      LSLS     r0,r4,#9
        0x00002b6a:    0f41        A.      LSRS     r1,r0,#29
        0x00002b6c:    2902        .)      CMP      r1,#2
        0x00002b6e:    d005        ..      BEQ      0x2b7c ; _printf_core + 552
        0x00002b70:    cf01        ..      LDM      r7!,{r0}
        0x00002b72:    17c2        ..      ASRS     r2,r0,#31
        0x00002b74:    4694        .F      MOV      r12,r2
        0x00002b76:    2903        .)      CMP      r1,#3
        0x00002b78:    d005        ..      BEQ      0x2b86 ; _printf_core + 562
        0x00002b7a:    e007        ..      B        0x2b8c ; _printf_core + 568
        0x00002b7c:    1dff        ..      ADDS     r7,r7,#7
        0x00002b7e:    08ff        ..      LSRS     r7,r7,#3
        0x00002b80:    00ff        ..      LSLS     r7,r7,#3
        0x00002b82:    cf03        ..      LDM      r7!,{r0,r1}
        0x00002b84:    e006        ..      B        0x2b94 ; _printf_core + 576
        0x00002b86:    b200        ..      SXTH     r0,r0
        0x00002b88:    17c2        ..      ASRS     r2,r0,#31
        0x00002b8a:    4694        .F      MOV      r12,r2
        0x00002b8c:    2904        .)      CMP      r1,#4
        0x00002b8e:    d102        ..      BNE      0x2b96 ; _printf_core + 578
        0x00002b90:    b240        @.      SXTB     r0,r0
        0x00002b92:    17c1        ..      ASRS     r1,r0,#31
        0x00002b94:    468c        .F      MOV      r12,r1
        0x00002b96:    2200        ."      MOVS     r2,#0
        0x00002b98:    4661        aF      MOV      r1,r12
        0x00002b9a:    4594        .E      CMP      r12,r2
        0x00002b9c:    da06        ..      BGE      0x2bac ; _printf_core + 600
        0x00002b9e:    460a        .F      MOV      r2,r1
        0x00002ba0:    2100        .!      MOVS     r1,#0
        0x00002ba2:    4240        @B      RSBS     r0,r0,#0
        0x00002ba4:    4191        .A      SBCS     r1,r1,r2
        0x00002ba6:    468c        .F      MOV      r12,r1
        0x00002ba8:    212d        -!      MOVS     r1,#0x2d
        0x00002baa:    e002        ..      B        0x2bb2 ; _printf_core + 606
        0x00002bac:    0521        !.      LSLS     r1,r4,#20
        0x00002bae:    d504        ..      BPL      0x2bba ; _printf_core + 614
        0x00002bb0:    212b        +!      MOVS     r1,#0x2b
        0x00002bb2:    466a        jF      MOV      r2,sp
        0x00002bb4:    7611        .v      STRB     r1,[r2,#0x18]
        0x00002bb6:    2101        .!      MOVS     r1,#1
        0x00002bb8:    e003        ..      B        0x2bc2 ; _printf_core + 622
        0x00002bba:    07e1        ..      LSLS     r1,r4,#31
        0x00002bbc:    d001        ..      BEQ      0x2bc2 ; _printf_core + 622
        0x00002bbe:    2120         !      MOVS     r1,#0x20
        0x00002bc0:    e7f7        ..      B        0x2bb2 ; _printf_core + 606
        0x00002bc2:    9101        ..      STR      r1,[sp,#4]
        0x00002bc4:    e054        T.      B        0x2c70 ; _printf_core + 796
        0x00002bc6:    200a        .       MOVS     r0,#0xa
        0x00002bc8:    e00b        ..      B        0x2be2 ; _printf_core + 654
        0x00002bca:    2010        .       MOVS     r0,#0x10
        0x00002bcc:    e009        ..      B        0x2be2 ; _printf_core + 654
        0x00002bce:    2010        .       MOVS     r0,#0x10
        0x00002bd0:    9004        ..      STR      r0,[sp,#0x10]
        0x00002bd2:    2100        .!      MOVS     r1,#0
        0x00002bd4:    2004        .       MOVS     r0,#4
        0x00002bd6:    4304        .C      ORRS     r4,r4,r0
        0x00002bd8:    2008        .       MOVS     r0,#8
        0x00002bda:    9105        ..      STR      r1,[sp,#0x14]
        0x00002bdc:    9002        ..      STR      r0,[sp,#8]
        0x00002bde:    e003        ..      B        0x2be8 ; _printf_core + 660
        0x00002be0:    2008        .       MOVS     r0,#8
        0x00002be2:    2100        .!      MOVS     r1,#0
        0x00002be4:    9105        ..      STR      r1,[sp,#0x14]
        0x00002be6:    9004        ..      STR      r0,[sp,#0x10]
        0x00002be8:    0260        `.      LSLS     r0,r4,#9
        0x00002bea:    0f41        A.      LSRS     r1,r0,#29
        0x00002bec:    2902        .)      CMP      r1,#2
        0x00002bee:    d005        ..      BEQ      0x2bfc ; _printf_core + 680
        0x00002bf0:    cf01        ..      LDM      r7!,{r0}
        0x00002bf2:    2200        ."      MOVS     r2,#0
        0x00002bf4:    4694        .F      MOV      r12,r2
        0x00002bf6:    2903        .)      CMP      r1,#3
        0x00002bf8:    d006        ..      BEQ      0x2c08 ; _printf_core + 692
        0x00002bfa:    e006        ..      B        0x2c0a ; _printf_core + 694
        0x00002bfc:    1dff        ..      ADDS     r7,r7,#7
        0x00002bfe:    08ff        ..      LSRS     r7,r7,#3
        0x00002c00:    00ff        ..      LSLS     r7,r7,#3
        0x00002c02:    cf03        ..      LDM      r7!,{r0,r1}
        0x00002c04:    468c        .F      MOV      r12,r1
        0x00002c06:    e003        ..      B        0x2c10 ; _printf_core + 700
        0x00002c08:    b280        ..      UXTH     r0,r0
        0x00002c0a:    2904        .)      CMP      r1,#4
        0x00002c0c:    d100        ..      BNE      0x2c10 ; _printf_core + 700
        0x00002c0e:    b2c0        ..      UXTB     r0,r0
        0x00002c10:    2100        .!      MOVS     r1,#0
        0x00002c12:    9101        ..      STR      r1,[sp,#4]
        0x00002c14:    0721        !.      LSLS     r1,r4,#28
        0x00002c16:    d52b        +.      BPL      0x2c70 ; _printf_core + 796
        0x00002c18:    9903        ..      LDR      r1,[sp,#0xc]
        0x00002c1a:    2970        p)      CMP      r1,#0x70
        0x00002c1c:    d006        ..      BEQ      0x2c2c ; _printf_core + 728
        0x00002c1e:    9a04        ..      LDR      r2,[sp,#0x10]
        0x00002c20:    2110        .!      MOVS     r1,#0x10
        0x00002c22:    9b05        ..      LDR      r3,[sp,#0x14]
        0x00002c24:    404a        J@      EORS     r2,r2,r1
        0x00002c26:    431a        .C      ORRS     r2,r2,r3
        0x00002c28:    d005        ..      BEQ      0x2c36 ; _printf_core + 738
        0x00002c2a:    e00e        ..      B        0x2c4a ; _printf_core + 758
        0x00002c2c:    2140        @!      MOVS     r1,#0x40
        0x00002c2e:    466a        jF      MOV      r2,sp
        0x00002c30:    7611        .v      STRB     r1,[r2,#0x18]
        0x00002c32:    2101        .!      MOVS     r1,#1
        0x00002c34:    e008        ..      B        0x2c48 ; _printf_core + 756
        0x00002c36:    4661        aF      MOV      r1,r12
        0x00002c38:    4301        .C      ORRS     r1,r1,r0
        0x00002c3a:    d006        ..      BEQ      0x2c4a ; _printf_core + 758
        0x00002c3c:    2130        0!      MOVS     r1,#0x30
        0x00002c3e:    466a        jF      MOV      r2,sp
        0x00002c40:    7611        .v      STRB     r1,[r2,#0x18]
        0x00002c42:    9903        ..      LDR      r1,[sp,#0xc]
        0x00002c44:    7651        Qv      STRB     r1,[r2,#0x19]
        0x00002c46:    2102        .!      MOVS     r1,#2
        0x00002c48:    9101        ..      STR      r1,[sp,#4]
        0x00002c4a:    9a04        ..      LDR      r2,[sp,#0x10]
        0x00002c4c:    2108        .!      MOVS     r1,#8
        0x00002c4e:    9b05        ..      LDR      r3,[sp,#0x14]
        0x00002c50:    404a        J@      EORS     r2,r2,r1
        0x00002c52:    431a        .C      ORRS     r2,r2,r3
        0x00002c54:    d10c        ..      BNE      0x2c70 ; _printf_core + 796
        0x00002c56:    4661        aF      MOV      r1,r12
        0x00002c58:    4301        .C      ORRS     r1,r1,r0
        0x00002c5a:    d101        ..      BNE      0x2c60 ; _printf_core + 780
        0x00002c5c:    0761        a.      LSLS     r1,r4,#29
        0x00002c5e:    d507        ..      BPL      0x2c70 ; _printf_core + 796
        0x00002c60:    2130        0!      MOVS     r1,#0x30
        0x00002c62:    466a        jF      MOV      r2,sp
        0x00002c64:    7611        .v      STRB     r1,[r2,#0x18]
        0x00002c66:    2101        .!      MOVS     r1,#1
        0x00002c68:    9101        ..      STR      r1,[sp,#4]
        0x00002c6a:    9902        ..      LDR      r1,[sp,#8]
        0x00002c6c:    1e49        I.      SUBS     r1,r1,#1
        0x00002c6e:    9102        ..      STR      r1,[sp,#8]
        0x00002c70:    9903        ..      LDR      r1,[sp,#0xc]
        0x00002c72:    2958        X)      CMP      r1,#0x58
        0x00002c74:    d004        ..      BEQ      0x2c80 ; _printf_core + 812
        0x00002c76:    a137        7.      ADR      r1,{pc}+0xde ; 0x2d54
        0x00002c78:    9103        ..      STR      r1,[sp,#0xc]
        0x00002c7a:    a90f        ..      ADD      r1,sp,#0x3c
        0x00002c7c:    910f        ..      STR      r1,[sp,#0x3c]
        0x00002c7e:    e00d        ..      B        0x2c9c ; _printf_core + 840
        0x00002c80:    a139        9.      ADR      r1,{pc}+0xe8 ; 0x2d68
        0x00002c82:    e7f9        ..      B        0x2c78 ; _printf_core + 804
        0x00002c84:    4661        aF      MOV      r1,r12
        0x00002c86:    9b05        ..      LDR      r3,[sp,#0x14]
        0x00002c88:    9a04        ..      LDR      r2,[sp,#0x10]
        0x00002c8a:    f7fdfac6    ....    BL       __aeabi_uldivmod ; 0x21a
        0x00002c8e:    9b03        ..      LDR      r3,[sp,#0xc]
        0x00002c90:    468c        .F      MOV      r12,r1
        0x00002c92:    5c9b        .\      LDRB     r3,[r3,r2]
        0x00002c94:    9a0f        ..      LDR      r2,[sp,#0x3c]
        0x00002c96:    1e52        R.      SUBS     r2,r2,#1
        0x00002c98:    920f        ..      STR      r2,[sp,#0x3c]
        0x00002c9a:    7013        .p      STRB     r3,[r2,#0]
        0x00002c9c:    4661        aF      MOV      r1,r12
        0x00002c9e:    4301        .C      ORRS     r1,r1,r0
        0x00002ca0:    d1f0        ..      BNE      0x2c84 ; _printf_core + 816
        0x00002ca2:    980f        ..      LDR      r0,[sp,#0x3c]
        0x00002ca4:    a907        ..      ADD      r1,sp,#0x1c
        0x00002ca6:    1a08        ..      SUBS     r0,r1,r0
        0x00002ca8:    3020         0      ADDS     r0,r0,#0x20
        0x00002caa:    9003        ..      STR      r0,[sp,#0xc]
        0x00002cac:    0760        `.      LSLS     r0,r4,#29
        0x00002cae:    d504        ..      BPL      0x2cba ; _printf_core + 870
        0x00002cb0:    2001        .       MOVS     r0,#1
        0x00002cb2:    0400        ..      LSLS     r0,r0,#16
        0x00002cb4:    4384        .C      BICS     r4,r4,r0
        0x00002cb6:    9802        ..      LDR      r0,[sp,#8]
        0x00002cb8:    e001        ..      B        0x2cbe ; _printf_core + 874
        0x00002cba:    2001        .       MOVS     r0,#1
        0x00002cbc:    9002        ..      STR      r0,[sp,#8]
        0x00002cbe:    9903        ..      LDR      r1,[sp,#0xc]
        0x00002cc0:    4288        .B      CMP      r0,r1
        0x00002cc2:    dd01        ..      BLE      0x2cc8 ; _printf_core + 884
        0x00002cc4:    1a40        @.      SUBS     r0,r0,r1
        0x00002cc6:    e000        ..      B        0x2cca ; _printf_core + 886
        0x00002cc8:    2000        .       MOVS     r0,#0
        0x00002cca:    1841        A.      ADDS     r1,r0,r1
        0x00002ccc:    9002        ..      STR      r0,[sp,#8]
        0x00002cce:    9801        ..      LDR      r0,[sp,#4]
        0x00002cd0:    1809        ..      ADDS     r1,r1,r0
        0x00002cd2:    9800        ..      LDR      r0,[sp,#0]
        0x00002cd4:    1a40        @.      SUBS     r0,r0,r1
        0x00002cd6:    9000        ..      STR      r0,[sp,#0]
        0x00002cd8:    03e0        ..      LSLS     r0,r4,#15
        0x00002cda:    d406        ..      BMI      0x2cea ; _printf_core + 918
        0x00002cdc:    4621        !F      MOV      r1,r4
        0x00002cde:    9b14        ..      LDR      r3,[sp,#0x50]
        0x00002ce0:    9a13        ..      LDR      r2,[sp,#0x4c]
        0x00002ce2:    9800        ..      LDR      r0,[sp,#0]
        0x00002ce4:    f000f85a    ..Z.    BL       _printf_pre_padding ; 0x2d9c
        0x00002ce8:    1986        ..      ADDS     r6,r0,r6
        0x00002cea:    2000        .       MOVS     r0,#0
        0x00002cec:    9004        ..      STR      r0,[sp,#0x10]
        0x00002cee:    e008        ..      B        0x2d02 ; _printf_core + 942
        0x00002cf0:    a906        ..      ADD      r1,sp,#0x18
        0x00002cf2:    5c08        .\      LDRB     r0,[r1,r0]
        0x00002cf4:    9a14        ..      LDR      r2,[sp,#0x50]
        0x00002cf6:    9913        ..      LDR      r1,[sp,#0x4c]
        0x00002cf8:    4790        .G      BLX      r2
        0x00002cfa:    9804        ..      LDR      r0,[sp,#0x10]
        0x00002cfc:    1c40        @.      ADDS     r0,r0,#1
        0x00002cfe:    1c76        v.      ADDS     r6,r6,#1
        0x00002d00:    9004        ..      STR      r0,[sp,#0x10]
        0x00002d02:    9901        ..      LDR      r1,[sp,#4]
        0x00002d04:    4288        .B      CMP      r0,r1
        0x00002d06:    dbf3        ..      BLT      0x2cf0 ; _printf_core + 924
        0x00002d08:    03e0        ..      LSLS     r0,r4,#15
        0x00002d0a:    d50c        ..      BPL      0x2d26 ; _printf_core + 978
        0x00002d0c:    4621        !F      MOV      r1,r4
        0x00002d0e:    9b14        ..      LDR      r3,[sp,#0x50]
        0x00002d10:    9a13        ..      LDR      r2,[sp,#0x4c]
        0x00002d12:    9800        ..      LDR      r0,[sp,#0]
        0x00002d14:    f000f842    ..B.    BL       _printf_pre_padding ; 0x2d9c
        0x00002d18:    1986        ..      ADDS     r6,r0,r6
        0x00002d1a:    e004        ..      B        0x2d26 ; _printf_core + 978
        0x00002d1c:    9a14        ..      LDR      r2,[sp,#0x50]
        0x00002d1e:    2030        0       MOVS     r0,#0x30
        0x00002d20:    9913        ..      LDR      r1,[sp,#0x4c]
        0x00002d22:    4790        .G      BLX      r2
        0x00002d24:    1c76        v.      ADDS     r6,r6,#1
        0x00002d26:    9902        ..      LDR      r1,[sp,#8]
        0x00002d28:    1e48        H.      SUBS     r0,r1,#1
        0x00002d2a:    9002        ..      STR      r0,[sp,#8]
        0x00002d2c:    2900        .)      CMP      r1,#0
        0x00002d2e:    dcf5        ..      BGT      0x2d1c ; _printf_core + 968
        0x00002d30:    e008        ..      B        0x2d44 ; _printf_core + 1008
        0x00002d32:    980f        ..      LDR      r0,[sp,#0x3c]
        0x00002d34:    990f        ..      LDR      r1,[sp,#0x3c]
        0x00002d36:    7800        .x      LDRB     r0,[r0,#0]
        0x00002d38:    1c49        I.      ADDS     r1,r1,#1
        0x00002d3a:    910f        ..      STR      r1,[sp,#0x3c]
        0x00002d3c:    9a14        ..      LDR      r2,[sp,#0x50]
        0x00002d3e:    9913        ..      LDR      r1,[sp,#0x4c]
        0x00002d40:    4790        .G      BLX      r2
        0x00002d42:    1c76        v.      ADDS     r6,r6,#1
        0x00002d44:    9903        ..      LDR      r1,[sp,#0xc]
        0x00002d46:    1e48        H.      SUBS     r0,r1,#1
        0x00002d48:    9003        ..      STR      r0,[sp,#0xc]
        0x00002d4a:    2900        .)      CMP      r1,#0
        0x00002d4c:    dcf1        ..      BGT      0x2d32 ; _printf_core + 990
        0x00002d4e:    e6fb        ..      B        0x2b48 ; _printf_core + 500
    $d
        0x00002d50:    00012809    .(..    DCD    75785
        0x00002d54:    33323130    0123    DCD    858927408
        0x00002d58:    37363534    4567    DCD    926299444
        0x00002d5c:    62613938    89ab    DCD    1650538808
        0x00002d60:    66656463    cdef    DCD    1717920867
        0x00002d64:    00000000    ....    DCD    0
        0x00002d68:    33323130    0123    DCD    858927408
        0x00002d6c:    37363534    4567    DCD    926299444
        0x00002d70:    42413938    89AB    DCD    1111570744
        0x00002d74:    46454443    CDEF    DCD    1178944579
        0x00002d78:    00000000    ....    DCD    0
    $t
    i._printf_post_padding
    _printf_post_padding
        0x00002d7c:    b5f8        ..      PUSH     {r3-r7,lr}
        0x00002d7e:    4604        .F      MOV      r4,r0
        0x00002d80:    2500        .%      MOVS     r5,#0
        0x00002d82:    461e        .F      MOV      r6,r3
        0x00002d84:    4617        .F      MOV      r7,r2
        0x00002d86:    0488        ..      LSLS     r0,r1,#18
        0x00002d88:    d404        ..      BMI      0x2d94 ; _printf_post_padding + 24
        0x00002d8a:    e005        ..      B        0x2d98 ; _printf_post_padding + 28
        0x00002d8c:    4639        9F      MOV      r1,r7
        0x00002d8e:    2020                MOVS     r0,#0x20
        0x00002d90:    47b0        .G      BLX      r6
        0x00002d92:    1c6d        m.      ADDS     r5,r5,#1
        0x00002d94:    1e64        d.      SUBS     r4,r4,#1
        0x00002d96:    d5f9        ..      BPL      0x2d8c ; _printf_post_padding + 16
        0x00002d98:    4628        (F      MOV      r0,r5
        0x00002d9a:    bdf8        ..      POP      {r3-r7,pc}
    i._printf_pre_padding
    _printf_pre_padding
        0x00002d9c:    b5ff        ..      PUSH     {r0-r7,lr}
        0x00002d9e:    4604        .F      MOV      r4,r0
        0x00002da0:    2500        .%      MOVS     r5,#0
        0x00002da2:    b081        ..      SUB      sp,sp,#4
        0x00002da4:    461e        .F      MOV      r6,r3
        0x00002da6:    03c8        ..      LSLS     r0,r1,#15
        0x00002da8:    d501        ..      BPL      0x2dae ; _printf_pre_padding + 18
        0x00002daa:    2730        0'      MOVS     r7,#0x30
        0x00002dac:    e000        ..      B        0x2db0 ; _printf_pre_padding + 20
        0x00002dae:    2720         '      MOVS     r7,#0x20
        0x00002db0:    0488        ..      LSLS     r0,r1,#18
        0x00002db2:    d504        ..      BPL      0x2dbe ; _printf_pre_padding + 34
        0x00002db4:    e005        ..      B        0x2dc2 ; _printf_pre_padding + 38
        0x00002db6:    4638        8F      MOV      r0,r7
        0x00002db8:    9903        ..      LDR      r1,[sp,#0xc]
        0x00002dba:    47b0        .G      BLX      r6
        0x00002dbc:    1c6d        m.      ADDS     r5,r5,#1
        0x00002dbe:    1e64        d.      SUBS     r4,r4,#1
        0x00002dc0:    d5f9        ..      BPL      0x2db6 ; _printf_pre_padding + 26
        0x00002dc2:    4628        (F      MOV      r0,r5
        0x00002dc4:    b005        ..      ADD      sp,sp,#0x14
        0x00002dc6:    bdf0        ..      POP      {r4-r7,pc}
    i.check_reset_source
    check_reset_source
        0x00002dc8:    b510        ..      PUSH     {r4,lr}
        0x00002dca:    f7fff8e4    ....    BL       SYS_GetResetSrc ; 0x1f96
        0x00002dce:    4604        .F      MOV      r4,r0
        0x00002dd0:    2001        .       MOVS     r0,#1
        0x00002dd2:    0780        ..      LSLS     r0,r0,#30
        0x00002dd4:    6840        @h      LDR      r0,[r0,#4]
        0x00002dd6:    4939        9I      LDR      r1,[pc,#228] ; [0x2ebc] = 0x1ff
        0x00002dd8:    4308        .C      ORRS     r0,r0,r1
        0x00002dda:    2101        .!      MOVS     r1,#1
        0x00002ddc:    0789        ..      LSLS     r1,r1,#30
        0x00002dde:    6048        H`      STR      r0,[r1,#4]
        0x00002de0:    4621        !F      MOV      r1,r4
        0x00002de2:    a037        7.      ADR      r0,{pc}+0xde ; 0x2ec0
        0x00002de4:    f7fffd20    .. .    BL       __0printf$8 ; 0x2828
        0x00002de8:    07e0        ..      LSLS     r0,r4,#31
        0x00002dea:    0fc0        ..      LSRS     r0,r0,#31
        0x00002dec:    2800        .(      CMP      r0,#0
        0x00002dee:    d002        ..      BEQ      0x2df6 ; check_reset_source + 46
        0x00002df0:    a039        9.      ADR      r0,{pc}+0xe8 ; 0x2ed8
        0x00002df2:    f7fffd19    ....    BL       __0printf$8 ; 0x2828
        0x00002df6:    2002        .       MOVS     r0,#2
        0x00002df8:    4020         @      ANDS     r0,r0,r4
        0x00002dfa:    2800        .(      CMP      r0,#0
        0x00002dfc:    d002        ..      BEQ      0x2e04 ; check_reset_source + 60
        0x00002dfe:    a03b        ;.      ADR      r0,{pc}+0xee ; 0x2eec
        0x00002e00:    f7fffd12    ....    BL       __0printf$8 ; 0x2828
        0x00002e04:    2004        .       MOVS     r0,#4
        0x00002e06:    4020         @      ANDS     r0,r0,r4
        0x00002e08:    2800        .(      CMP      r0,#0
        0x00002e0a:    d002        ..      BEQ      0x2e12 ; check_reset_source + 74
        0x00002e0c:    a03e        >.      ADR      r0,{pc}+0xfc ; 0x2f08
        0x00002e0e:    f7fffd0b    ....    BL       __0printf$8 ; 0x2828
        0x00002e12:    2008        .       MOVS     r0,#8
        0x00002e14:    4020         @      ANDS     r0,r0,r4
        0x00002e16:    2800        .(      CMP      r0,#0
        0x00002e18:    d002        ..      BEQ      0x2e20 ; check_reset_source + 88
        0x00002e1a:    a040        @.      ADR      r0,{pc}+0x102 ; 0x2f1c
        0x00002e1c:    f7fffd04    ....    BL       __0printf$8 ; 0x2828
        0x00002e20:    2010        .       MOVS     r0,#0x10
        0x00002e22:    4020         @      ANDS     r0,r0,r4
        0x00002e24:    2800        .(      CMP      r0,#0
        0x00002e26:    d002        ..      BEQ      0x2e2e ; check_reset_source + 102
        0x00002e28:    a041        A.      ADR      r0,{pc}+0x108 ; 0x2f30
        0x00002e2a:    f7fffcfd    ....    BL       __0printf$8 ; 0x2828
        0x00002e2e:    2020                MOVS     r0,#0x20
        0x00002e30:    4020         @      ANDS     r0,r0,r4
        0x00002e32:    2800        .(      CMP      r0,#0
        0x00002e34:    d002        ..      BEQ      0x2e3c ; check_reset_source + 116
        0x00002e36:    a043        C.      ADR      r0,{pc}+0x10e ; 0x2f44
        0x00002e38:    f7fffcf6    ....    BL       __0printf$8 ; 0x2828
        0x00002e3c:    2040        @       MOVS     r0,#0x40
        0x00002e3e:    4020         @      ANDS     r0,r0,r4
        0x00002e40:    2800        .(      CMP      r0,#0
        0x00002e42:    d002        ..      BEQ      0x2e4a ; check_reset_source + 130
        0x00002e44:    a045        E.      ADR      r0,{pc}+0x118 ; 0x2f5c
        0x00002e46:    f7fffcef    ....    BL       __0printf$8 ; 0x2828
        0x00002e4a:    2080        .       MOVS     r0,#0x80
        0x00002e4c:    4020         @      ANDS     r0,r0,r4
        0x00002e4e:    2800        .(      CMP      r0,#0
        0x00002e50:    d002        ..      BEQ      0x2e58 ; check_reset_source + 144
        0x00002e52:    a046        F.      ADR      r0,{pc}+0x11a ; 0x2f6c
        0x00002e54:    f7fffce8    ....    BL       __0printf$8 ; 0x2828
        0x00002e58:    20ff        .       MOVS     r0,#0xff
        0x00002e5a:    3001        .0      ADDS     r0,#1
        0x00002e5c:    4020         @      ANDS     r0,r0,r4
        0x00002e5e:    2800        .(      CMP      r0,#0
        0x00002e60:    d002        ..      BEQ      0x2e68 ; check_reset_source + 160
        0x00002e62:    a047        G.      ADR      r0,{pc}+0x11e ; 0x2f80
        0x00002e64:    f7fffce0    ....    BL       __0printf$8 ; 0x2828
        0x00002e68:    07e0        ..      LSLS     r0,r4,#31
        0x00002e6a:    0fc0        ..      LSRS     r0,r0,#31
        0x00002e6c:    2800        .(      CMP      r0,#0
        0x00002e6e:    d007        ..      BEQ      0x2e80 ; check_reset_source + 184
        0x00002e70:    2001        .       MOVS     r0,#1
        0x00002e72:    f7fff88c    ....    BL       SYS_ClearResetSrc ; 0x1f8e
        0x00002e76:    a049        I.      ADR      r0,{pc}+0x126 ; 0x2f9c
        0x00002e78:    f7fffcd6    ....    BL       __0printf$8 ; 0x2828
        0x00002e7c:    2000        .       MOVS     r0,#0
        0x00002e7e:    bd10        ..      POP      {r4,pc}
        0x00002e80:    2080        .       MOVS     r0,#0x80
        0x00002e82:    4020         @      ANDS     r0,r0,r4
        0x00002e84:    2800        .(      CMP      r0,#0
        0x00002e86:    d007        ..      BEQ      0x2e98 ; check_reset_source + 208
        0x00002e88:    2080        .       MOVS     r0,#0x80
        0x00002e8a:    f7fff880    ....    BL       SYS_ClearResetSrc ; 0x1f8e
        0x00002e8e:    a048        H.      ADR      r0,{pc}+0x122 ; 0x2fb0
        0x00002e90:    f7fffcca    ....    BL       __0printf$8 ; 0x2828
        0x00002e94:    2000        .       MOVS     r0,#0
        0x00002e96:    e7f2        ..      B        0x2e7e ; check_reset_source + 182
        0x00002e98:    2002        .       MOVS     r0,#2
        0x00002e9a:    4020         @      ANDS     r0,r0,r4
        0x00002e9c:    2800        .(      CMP      r0,#0
        0x00002e9e:    d007        ..      BEQ      0x2eb0 ; check_reset_source + 232
        0x00002ea0:    2002        .       MOVS     r0,#2
        0x00002ea2:    f7fff874    ..t.    BL       SYS_ClearResetSrc ; 0x1f8e
        0x00002ea6:    a049        I.      ADR      r0,{pc}+0x126 ; 0x2fcc
        0x00002ea8:    f7fffcbe    ....    BL       __0printf$8 ; 0x2828
        0x00002eac:    2000        .       MOVS     r0,#0
        0x00002eae:    e7e6        ..      B        0x2e7e ; check_reset_source + 182
        0x00002eb0:    a04d        M.      ADR      r0,{pc}+0x138 ; 0x2fe8
        0x00002eb2:    f7fffcb9    ....    BL       __0printf$8 ; 0x2828
        0x00002eb6:    2000        .       MOVS     r0,#0
        0x00002eb8:    e7e1        ..      B        0x2e7e ; check_reset_source + 182
    $d
        0x00002eba:    0000        ..      DCW    0
        0x00002ebc:    000001ff    ....    DCD    511
        0x00002ec0:    65736552    Rese    DCD    1702061394
        0x00002ec4:    6f532074    t So    DCD    1867718772
        0x00002ec8:    65637275    urce    DCD    1701016181
        0x00002ecc:    78303c20     <0x    DCD    2016427040
        0x00002ed0:    58383025    %08X    DCD    1480077349
        0x00002ed4:    000a0d3e    >...    DCD    658750
        0x00002ed8:    4f502930    0)PO    DCD    1330653488
        0x00002edc:    65522052    R Re    DCD    1699881042
        0x00002ee0:    20746573    set     DCD    544499059
        0x00002ee4:    67616c46    Flag    DCD    1734437958
        0x00002ee8:    00000a0d    ....    DCD    2573
        0x00002eec:    524e2931    1)NR    DCD    1380854065
        0x00002ef0:    54455345    ESET    DCD    1413829445
        0x00002ef4:    6e695020     Pin    DCD    1852395552
        0x00002ef8:    73655220     Res    DCD    1936020000
        0x00002efc:    46207465    et F    DCD    1176532069
        0x00002f00:    0d67616c    lag.    DCD    224878956
        0x00002f04:    0000000a    ....    DCD    10
        0x00002f08:    44572932    2)WD    DCD    1146562866
        0x00002f0c:    65522054    T Re    DCD    1699881044
        0x00002f10:    20746573    set     DCD    544499059
        0x00002f14:    67616c46    Flag    DCD    1734437958
        0x00002f18:    00000a0d    ....    DCD    2573
        0x00002f1c:    564c2933    3)LV    DCD    1447831859
        0x00002f20:    65522052    R Re    DCD    1699881042
        0x00002f24:    20746573    set     DCD    544499059
        0x00002f28:    67616c46    Flag    DCD    1734437958
        0x00002f2c:    00000a0d    ....    DCD    2573
        0x00002f30:    4f422934    4)BO    DCD    1329735988
        0x00002f34:    65522044    D Re    DCD    1699881028
        0x00002f38:    20746573    set     DCD    544499059
        0x00002f3c:    67616c46    Flag    DCD    1734437958
        0x00002f40:    00000a0d    ....    DCD    2573
        0x00002f44:    79532935    5)Sy    DCD    2035493173
        0x00002f48:    6d657473    stem    DCD    1835365491
        0x00002f4c:    73655220     Res    DCD    1936020000
        0x00002f50:    46207465    et F    DCD    1176532069
        0x00002f54:    2067616c    lag     DCD    543646060
        0x00002f58:    00000a0d    ....    DCD    2573
        0x00002f5c:    65522936    6)Re    DCD    1699883318
        0x00002f60:    76726573    serv    DCD    1987208563
        0x00002f64:    0d2e6465    ed..    DCD    221144165
        0x00002f68:    0000000a    ....    DCD    10
        0x00002f6c:    50432937    7)CP    DCD    1346578743
        0x00002f70:    65522055    U Re    DCD    1699881045
        0x00002f74:    20746573    set     DCD    544499059
        0x00002f78:    67616c46    Flag    DCD    1734437958
        0x00002f7c:    00000a0d    ....    DCD    2573
        0x00002f80:    50432938    8)CP    DCD    1346578744
        0x00002f84:    6f4c2055    U Lo    DCD    1867259989
        0x00002f88:    70756b63    ckup    DCD    1886743395
        0x00002f8c:    73655220     Res    DCD    1936020000
        0x00002f90:    46207465    et F    DCD    1176532069
        0x00002f94:    0d67616c    lag.    DCD    224878956
        0x00002f98:    0000000a    ....    DCD    10
        0x00002f9c:    65776f70    powe    DCD    1702326128
        0x00002fa0:    6e6f2072    r on    DCD    1852776562
        0x00002fa4:    6f726620     fro    DCD    1869768224
        0x00002fa8:    4f50206d    m PO    DCD    1330651245
        0x00002fac:    000a0d52    R...    DCD    658770
        0x00002fb0:    65776f70    powe    DCD    1702326128
        0x00002fb4:    6e6f2072    r on    DCD    1852776562
        0x00002fb8:    6f726620     fro    DCD    1869768224
        0x00002fbc:    5043206d    m CP    DCD    1346576493
        0x00002fc0:    65722055    U re    DCD    1701978197
        0x00002fc4:    0d746573    set.    DCD    225731955
        0x00002fc8:    0000000a    ....    DCD    10
        0x00002fcc:    65776f70    powe    DCD    1702326128
        0x00002fd0:    6e6f2072    r on    DCD    1852776562
        0x00002fd4:    6f726620     fro    DCD    1869768224
        0x00002fd8:    526e206d    m nR    DCD    1382948973
        0x00002fdc:    54455345    ESET    DCD    1413829445
        0x00002fe0:    6e697020     pin    DCD    1852403744
        0x00002fe4:    00000a0d    ....    DCD    2573
        0x00002fe8:    65776f70    powe    DCD    1702326128
        0x00002fec:    6e6f2072    r on    DCD    1852776562
        0x00002ff0:    6f726620     fro    DCD    1869768224
        0x00002ff4:    6e75206d    m un    DCD    1853169773
        0x00002ff8:    646e6168    hand    DCD    1684955496
        0x00002ffc:    7220656c    le r    DCD    1914725740
        0x00003000:    74657365    eset    DCD    1952805733
        0x00003004:    756f7320     sou    DCD    1970238240
        0x00003008:    0d656372    rce.    DCD    224748402
        0x0000300c:    0000000a    ....    DCD    10
    $t
    i.fputc
    fputc
        0x00003010:    b570        p.      PUSH     {r4-r6,lr}
        0x00003012:    4604        .F      MOV      r4,r0
        0x00003014:    460d        .F      MOV      r5,r1
        0x00003016:    4620         F      MOV      r0,r4
        0x00003018:    f7fff896    ....    BL       SendChar ; 0x2148
        0x0000301c:    4620         F      MOV      r0,r4
        0x0000301e:    bd70        p.      POP      {r4-r6,pc}
    i.getBuiltInBandGap
    getBuiltInBandGap
        0x00003020:    b510        ..      PUSH     {r4,lr}
        0x00003022:    2400        .$      MOVS     r4,#0
        0x00003024:    f7fff880    ....    BL       SYS_UnlockReg ; 0x2128
        0x00003028:    f7fdfd7c    ..|.    BL       FMC_Open ; 0xb24
        0x0000302c:    bf00        ..      NOP      
        0x0000302e:    2004        .       MOVS     r0,#4
        0x00003030:    490d        .I      LDR      r1,[pc,#52] ; [0x3068] = 0x4000c000
        0x00003032:    60c8        .`      STR      r0,[r1,#0xc]
        0x00003034:    2070        p       MOVS     r0,#0x70
        0x00003036:    6048        H`      STR      r0,[r1,#4]
        0x00003038:    2001        .       MOVS     r0,#1
        0x0000303a:    6108        .a      STR      r0,[r1,#0x10]
        0x0000303c:    bf00        ..      NOP      
        0x0000303e:    bf00        ..      NOP      
        0x00003040:    4809        .H      LDR      r0,[pc,#36] ; [0x3068] = 0x4000c000
        0x00003042:    6900        .i      LDR      r0,[r0,#0x10]
        0x00003044:    07c0        ..      LSLS     r0,r0,#31
        0x00003046:    0fc0        ..      LSRS     r0,r0,#31
        0x00003048:    2800        .(      CMP      r0,#0
        0x0000304a:    d1f9        ..      BNE      0x3040 ; getBuiltInBandGap + 32
        0x0000304c:    4806        .H      LDR      r0,[pc,#24] ; [0x3068] = 0x4000c000
        0x0000304e:    6880        .h      LDR      r0,[r0,#8]
        0x00003050:    0504        ..      LSLS     r4,r0,#20
        0x00003052:    0d24        $.      LSRS     r4,r4,#20
        0x00003054:    f7fdfd5c    ..\.    BL       FMC_Close ; 0xb10
        0x00003058:    bf00        ..      NOP      
        0x0000305a:    2000        .       MOVS     r0,#0
        0x0000305c:    4903        .I      LDR      r1,[pc,#12] ; [0x306c] = 0x40000100
        0x0000305e:    6008        .`      STR      r0,[r1,#0]
        0x00003060:    bf00        ..      NOP      
        0x00003062:    4620         F      MOV      r0,r4
        0x00003064:    bd10        ..      POP      {r4,pc}
    $d
        0x00003066:    0000        ..      DCW    0
        0x00003068:    4000c000    ...@    DCD    1073790976
        0x0000306c:    40000100    ...@    DCD    1073742080
    $t
    i.get_systick
    get_systick
        0x00003070:    4801        .H      LDR      r0,[pc,#4] ; [0x3078] = 0x20000024
        0x00003072:    6800        .h      LDR      r0,[r0,#0]
        0x00003074:    4770        pG      BX       lr
    $d
        0x00003076:    0000        ..      DCW    0
        0x00003078:    20000024    $..     DCD    536870948
    $t
    i.get_tick
    get_tick
        0x0000307c:    4801        .H      LDR      r0,[pc,#4] ; [0x3084] = 0x20000028
        0x0000307e:    6800        .h      LDR      r0,[r0,#0]
        0x00003080:    4770        pG      BX       lr
    $d
        0x00003082:    0000        ..      DCW    0
        0x00003084:    20000028    (..     DCD    536870952
    $t
    i.loop
    loop
        0x00003088:    b510        ..      PUSH     {r4,lr}
        0x0000308a:    f7fffff1    ....    BL       get_systick ; 0x3070
        0x0000308e:    4818        .H      LDR      r0,[pc,#96] ; [0x30f0] = 0x20000020
        0x00003090:    7800        .x      LDRB     r0,[r0,#0]
        0x00003092:    07c0        ..      LSLS     r0,r0,#31
        0x00003094:    0fc0        ..      LSRS     r0,r0,#31
        0x00003096:    2800        .(      CMP      r0,#0
        0x00003098:    d00b        ..      BEQ      0x30b2 ; loop + 42
        0x0000309a:    4815        .H      LDR      r0,[pc,#84] ; [0x30f0] = 0x20000020
        0x0000309c:    6800        .h      LDR      r0,[r0,#0]
        0x0000309e:    0840        @.      LSRS     r0,r0,#1
        0x000030a0:    0040        @.      LSLS     r0,r0,#1
        0x000030a2:    4913        .I      LDR      r1,[pc,#76] ; [0x30f0] = 0x20000020
        0x000030a4:    6008        .`      STR      r0,[r1,#0]
        0x000030a6:    4813        .H      LDR      r0,[pc,#76] ; [0x30f4] = 0x40004880
        0x000030a8:    6840        @h      LDR      r0,[r0,#4]
        0x000030aa:    2101        .!      MOVS     r1,#1
        0x000030ac:    4048        H@      EORS     r0,r0,r1
        0x000030ae:    4911        .I      LDR      r1,[pc,#68] ; [0x30f4] = 0x40004880
        0x000030b0:    6048        H`      STR      r0,[r1,#4]
        0x000030b2:    480f        .H      LDR      r0,[pc,#60] ; [0x30f0] = 0x20000020
        0x000030b4:    7800        .x      LDRB     r0,[r0,#0]
        0x000030b6:    0780        ..      LSLS     r0,r0,#30
        0x000030b8:    0fc0        ..      LSRS     r0,r0,#31
        0x000030ba:    2800        .(      CMP      r0,#0
        0x000030bc:    d007        ..      BEQ      0x30ce ; loop + 70
        0x000030be:    480c        .H      LDR      r0,[pc,#48] ; [0x30f0] = 0x20000020
        0x000030c0:    6800        .h      LDR      r0,[r0,#0]
        0x000030c2:    2102        .!      MOVS     r1,#2
        0x000030c4:    4388        .C      BICS     r0,r0,r1
        0x000030c6:    490a        .I      LDR      r1,[pc,#40] ; [0x30f0] = 0x20000020
        0x000030c8:    6008        .`      STR      r0,[r1,#0]
        0x000030ca:    f7fdfa4d    ..M.    BL       ADC_Process ; 0x568
        0x000030ce:    4808        .H      LDR      r0,[pc,#32] ; [0x30f0] = 0x20000020
        0x000030d0:    7800        .x      LDRB     r0,[r0,#0]
        0x000030d2:    0740        @.      LSLS     r0,r0,#29
        0x000030d4:    0fc0        ..      LSRS     r0,r0,#31
        0x000030d6:    2800        .(      CMP      r0,#0
        0x000030d8:    d009        ..      BEQ      0x30ee ; loop + 102
        0x000030da:    4805        .H      LDR      r0,[pc,#20] ; [0x30f0] = 0x20000020
        0x000030dc:    6800        .h      LDR      r0,[r0,#0]
        0x000030de:    2104        .!      MOVS     r1,#4
        0x000030e0:    4388        .C      BICS     r0,r0,r1
        0x000030e2:    4903        .I      LDR      r1,[pc,#12] ; [0x30f0] = 0x20000020
        0x000030e4:    6008        .`      STR      r0,[r1,#0]
        0x000030e6:    4804        .H      LDR      r0,[pc,#16] ; [0x30f8] = 0x2000003c
        0x000030e8:    7800        .x      LDRB     r0,[r0,#0]
        0x000030ea:    f7fef98b    ....    BL       I2Cx_Master_example ; 0x1404
        0x000030ee:    bd10        ..      POP      {r4,pc}
    $d
        0x000030f0:    20000020     ..     DCD    536870944
        0x000030f4:    40004880    .H.@    DCD    1073760384
        0x000030f8:    2000003c    <..     DCD    536870972
    $t
    i.main
    main
        0x000030fc:    f7feff50    ..P.    BL       SYS_Init ; 0x1fa0
        0x00003100:    f7fdfd1a    ....    BL       GPIO_Init ; 0xb38
        0x00003104:    f7fffa0c    ....    BL       UART0_Init ; 0x2520
        0x00003108:    f7fff8f8    ....    BL       TIMER1_Init ; 0x22fc
        0x0000310c:    f7fffe5c    ..\.    BL       check_reset_source ; 0x2dc8
        0x00003110:    207d        }       MOVS     r0,#0x7d
        0x00003112:    00c0        ..      LSLS     r0,r0,#3
        0x00003114:    f7fff868    ..h.    BL       SysTick_enable ; 0x21e8
        0x00003118:    f7fdfa7c    ..|.    BL       ADC_VREF_Init ; 0x614
        0x0000311c:    f7fdf922    ..".    BL       ADC_CH_Init ; 0x364
        0x00003120:    f7fdfc94    ....    BL       DAC_Init ; 0xa4c
        0x00003124:    f7fefda6    ....    BL       I2Cx_Slave_Init ; 0x1c74
        0x00003128:    f7fef938    ..8.    BL       I2Cx_Master_Init ; 0x139c
        0x0000312c:    e001        ..      B        0x3132 ; main + 54
        0x0000312e:    f7ffffab    ....    BL       loop ; 0x3088
        0x00003132:    e7fc        ..      B        0x312e ; main + 50
    i.set_systick
    set_systick
        0x00003134:    4901        .I      LDR      r1,[pc,#4] ; [0x313c] = 0x20000024
        0x00003136:    6008        .`      STR      r0,[r1,#0]
        0x00003138:    4770        pG      BX       lr
    $d
        0x0000313a:    0000        ..      DCW    0
        0x0000313c:    20000024    $..     DCD    536870948
    $t
    i.set_tick
    set_tick
        0x00003140:    4901        .I      LDR      r1,[pc,#4] ; [0x3148] = 0x20000028
        0x00003142:    6008        .`      STR      r0,[r1,#0]
        0x00003144:    4770        pG      BX       lr
    $d
        0x00003146:    0000        ..      DCW    0
        0x00003148:    20000028    (..     DCD    536870952
    $t
    i.systick_counter
    systick_counter
        0x0000314c:    4802        .H      LDR      r0,[pc,#8] ; [0x3158] = 0x20000024
        0x0000314e:    6800        .h      LDR      r0,[r0,#0]
        0x00003150:    1c40        @.      ADDS     r0,r0,#1
        0x00003152:    4901        .I      LDR      r1,[pc,#4] ; [0x3158] = 0x20000024
        0x00003154:    6008        .`      STR      r0,[r1,#0]
        0x00003156:    4770        pG      BX       lr
    $d
        0x00003158:    20000024    $..     DCD    536870948
    $t
    i.tick_counter
    tick_counter
        0x0000315c:    b500        ..      PUSH     {lr}
        0x0000315e:    4807        .H      LDR      r0,[pc,#28] ; [0x317c] = 0x20000028
        0x00003160:    6800        .h      LDR      r0,[r0,#0]
        0x00003162:    1c40        @.      ADDS     r0,r0,#1
        0x00003164:    4905        .I      LDR      r1,[pc,#20] ; [0x317c] = 0x20000028
        0x00003166:    6008        .`      STR      r0,[r1,#0]
        0x00003168:    f7ffff88    ....    BL       get_tick ; 0x307c
        0x0000316c:    4904        .I      LDR      r1,[pc,#16] ; [0x3180] = 0xea60
        0x0000316e:    4288        .B      CMP      r0,r1
        0x00003170:    d302        ..      BCC      0x3178 ; tick_counter + 28
        0x00003172:    2000        .       MOVS     r0,#0
        0x00003174:    f7ffffe4    ....    BL       set_tick ; 0x3140
        0x00003178:    bd00        ..      POP      {pc}
    $d
        0x0000317a:    0000        ..      DCW    0
        0x0000317c:    20000028    (..     DCD    536870952
        0x00003180:    0000ea60    `...    DCD    60000
    $d.realdata
    .constdata
    gau32ClkSrcTbl
        0x00003184:    00000000    ....    DCD    0
        0x00003188:    00000000    ....    DCD    0
        0x0000318c:    044aa200    ..J.    DCD    72000000
        0x00003190:    00000000    ....    DCD    0
        0x00003194:    00000000    ....    DCD    0
        0x00003198:    00000000    ....    DCD    0
        0x0000319c:    00000000    ....    DCD    0
        0x000031a0:    02dc6c00    .l..    DCD    48000000
    .constdata
        0x000031a4:    00000000    ....    DCD    0
        0x000031a8:    00000000    ....    DCD    0
        0x000031ac:    00000000    ....    DCD    0
        0x000031b0:    02dc6c00    .l..    DCD    48000000
        0x000031b4:    00000000    ....    DCD    0
        0x000031b8:    00009600    ....    DCD    38400
        0x000031bc:    00000000    ....    DCD    0
        0x000031c0:    00000000    ....    DCD    0
        0x000031c4:    00000000    ....    DCD    0
        0x000031c8:    02dc6c00    .l..    DCD    48000000
        0x000031cc:    00000000    ....    DCD    0
        0x000031d0:    00009600    ....    DCD    38400
        0x000031d4:    00000000    ....    DCD    0
        0x000031d8:    00000000    ....    DCD    0
        0x000031dc:    00000000    ....    DCD    0
        0x000031e0:    02dc6c00    .l..    DCD    48000000
        0x000031e4:    00000000    ....    DCD    0
        0x000031e8:    00009600    ....    DCD    38400
    .constdata
        0x000031ec:    00000000    ....    DCD    0
        0x000031f0:    00000004    ....    DCD    4
        0x000031f4:    00000008    ....    DCD    8
        0x000031f8:    0000000c    ....    DCD    12
        0x000031fc:    00000000    ....    DCD    0
        0x00003200:    00000000    ....    DCD    0
        0x00003204:    00000000    ....    DCD    0
        0x00003208:    00000010    ....    DCD    16
        0x0000320c:    00000000    ....    DCD    0
        0x00003210:    00000004    ....    DCD    4
        0x00003214:    00000008    ....    DCD    8
        0x00003218:    00000000    ....    DCD    0
        0x0000321c:    00000004    ....    DCD    4
        0x00003220:    00000008    ....    DCD    8
    .constdata
        0x00003224:    00000000    ....    DCD    0
        0x00003228:    00000000    ....    DCD    0
        0x0000322c:    00000000    ....    DCD    0
        0x00003230:    00000000    ....    DCD    0
        0x00003234:    00000000    ....    DCD    0
        0x00003238:    00009600    ....    DCD    38400
        0x0000323c:    00000000    ....    DCD    0
        0x00003240:    02dc6c00    .l..    DCD    48000000
    .constdata
    g_au16Sine
        0x00003244:    08320800    ..2.    DCD    137496576
        0x00003248:    08960864    d...    DCD    144050276
        0x0000324c:    08fa08c8    ....    DCD    150603976
        0x00003250:    095e092c    ,.^.    DCD    157157676
        0x00003254:    09c0098f    ....    DCD    163580303
        0x00003258:    0a2209f1    ..".    DCD    170002929
        0x0000325c:    0a820a52    R...    DCD    176294482
        0x00003260:    0ae00ab1    ....    DCD    182454961
        0x00003264:    0b3d0b0f    ..=.    DCD    188549903
        0x00003268:    0b980b6b    k...    DCD    194513771
        0x0000326c:    0bf10bc5    ....    DCD    200346565
        0x00003270:    0c470c1c    ..G.    DCD    205982748
        0x00003274:    0c9a0c71    q...    DCD    211422321
        0x00003278:    0ceb0cc3    ....    DCD    216730819
        0x0000327c:    0d390d12    ..9.    DCD    221842706
        0x00003280:    0d830d5f    _...    DCD    226692447
        0x00003284:    0dca0da7    ....    DCD    231345575
        0x00003288:    0e0e0ded    ....    DCD    235802093
        0x0000328c:    0e4e0e2e    ..N.    DCD    239996462
        0x00003290:    0e8a0e6c    l...    DCD    243928684
        0x00003294:    0ec10ea6    ....    DCD    247533222
        0x00003298:    0ef50edc    ....    DCD    250941148
        0x0000329c:    0f240f0d    ..$.    DCD    254021389
        0x000032a0:    0f4f0f3a    :.O.    DCD    256839482
        0x000032a4:    0f760f63    c.v.    DCD    259395427
        0x000032a8:    0f980f87    ....    DCD    261623687
        0x000032ac:    0fb50fa7    ....    DCD    263524263
        0x000032b0:    0fcd0fc2    ....    DCD    265097154
        0x000032b4:    0fe10fd8    ....    DCD    266407896
        0x000032b8:    0ff00fe9    ....    DCD    267390953
        0x000032bc:    0ff90ff5    ....    DCD    267980789
        0x000032c0:    0ffe0ffd    ....    DCD    268308477
        0x000032c4:    0ffe0fff    ....    DCD    268308479
        0x000032c8:    0ff90ffd    ....    DCD    267980797
        0x000032cc:    0ff00ff5    ....    DCD    267390965
        0x000032d0:    0fe10fe9    ....    DCD    266407913
        0x000032d4:    0fcd0fd8    ....    DCD    265097176
        0x000032d8:    0fb50fc2    ....    DCD    263524290
        0x000032dc:    0f980fa7    ....    DCD    261623719
        0x000032e0:    0f760f87    ..v.    DCD    259395463
        0x000032e4:    0f4f0f63    c.O.    DCD    256839523
        0x000032e8:    0f240f3a    :.$.    DCD    254021434
        0x000032ec:    0ef50f0d    ....    DCD    250941197
        0x000032f0:    0ec10edc    ....    DCD    247533276
        0x000032f4:    0e8a0ea6    ....    DCD    243928742
        0x000032f8:    0e4e0e6c    l.N.    DCD    239996524
        0x000032fc:    0e0e0e2e    ....    DCD    235802158
        0x00003300:    0dca0ded    ....    DCD    231345645
        0x00003304:    0d830da7    ....    DCD    226692519
        0x00003308:    0d390d5f    _.9.    DCD    221842783
        0x0000330c:    0ceb0d12    ....    DCD    216730898
        0x00003310:    0c9a0cc3    ....    DCD    211422403
        0x00003314:    0c470c71    q.G.    DCD    205982833
        0x00003318:    0bf10c1c    ....    DCD    200346652
        0x0000331c:    0b980bc5    ....    DCD    194513861
        0x00003320:    0b3d0b6b    k.=.    DCD    188549995
        0x00003324:    0ae00b0f    ....    DCD    182455055
        0x00003328:    0a820ab1    ....    DCD    176294577
        0x0000332c:    0a220a52    R.".    DCD    170003026
        0x00003330:    09c009f1    ....    DCD    163580401
        0x00003334:    095e098f    ..^.    DCD    157157775
        0x00003338:    08fa092c    ,...    DCD    150604076
        0x0000333c:    089608c8    ....    DCD    144050376
        0x00003340:    08320864    d.2.    DCD    137496676
        0x00003344:    07cd0800    ....    DCD    130877440
        0x00003348:    0769079b    ..i.    DCD    124323739
        0x0000334c:    07050737    7...    DCD    117770039
        0x00003350:    06a106d3    ....    DCD    111216339
        0x00003354:    063f0670    p.?.    DCD    104793712
        0x00003358:    05dd060e    ....    DCD    98371086
        0x0000335c:    057d05ad    ..}.    DCD    92079533
        0x00003360:    051f054e    N...    DCD    85919054
        0x00003364:    04c204f0    ....    DCD    79824112
        0x00003368:    04670494    ..g.    DCD    73860244
        0x0000336c:    040e043a    :...    DCD    68027450
        0x00003370:    03b803e3    ....    DCD    62391267
        0x00003374:    0365038e    ..e.    DCD    56951694
        0x00003378:    0314033c    <...    DCD    51643196
        0x0000337c:    02c602ed    ....    DCD    46531309
        0x00003380:    027c02a0    ..|.    DCD    41681568
        0x00003384:    02350258    X.5.    DCD    37028440
        0x00003388:    01f10212    ....    DCD    32571922
        0x0000338c:    01b101d1    ....    DCD    28377553
        0x00003390:    01750193    ..u.    DCD    24445331
        0x00003394:    013e0159    Y.>.    DCD    20840793
        0x00003398:    010a0123    #...    DCD    17432867
        0x0000339c:    00db00f2    ....    DCD    14352626
        0x000033a0:    00b000c5    ....    DCD    11534533
        0x000033a4:    0089009c    ....    DCD    8978588
        0x000033a8:    00670078    x.g.    DCD    6750328
        0x000033ac:    004a0058    X.J.    DCD    4849752
        0x000033b0:    0032003d    =.2.    DCD    3276861
        0x000033b4:    001e0027    '...    DCD    1966119
        0x000033b8:    000f0016    ....    DCD    983062
        0x000033bc:    0006000a    ....    DCD    393226
        0x000033c0:    00010002    ....    DCD    65538
        0x000033c4:    00010000    ....    DCD    65536
        0x000033c8:    00060002    ....    DCD    393218
        0x000033cc:    000f000a    ....    DCD    983050
        0x000033d0:    001e0016    ....    DCD    1966102
        0x000033d4:    00320027    '.2.    DCD    3276839
        0x000033d8:    004a003d    =.J.    DCD    4849725
        0x000033dc:    00670058    X.g.    DCD    6750296
        0x000033e0:    00890078    x...    DCD    8978552
        0x000033e4:    00b0009c    ....    DCD    11534492
        0x000033e8:    00db00c5    ....    DCD    14352581
        0x000033ec:    010a00f2    ....    DCD    17432818
        0x000033f0:    013e0123    #.>.    DCD    20840739
        0x000033f4:    01750159    Y.u.    DCD    24445273
        0x000033f8:    01b10193    ....    DCD    28377491
        0x000033fc:    01f101d1    ....    DCD    32571857
        0x00003400:    02350212    ..5.    DCD    37028370
        0x00003404:    027c0258    X.|.    DCD    41681496
        0x00003408:    02c602a0    ....    DCD    46531232
        0x0000340c:    031402ed    ....    DCD    51643117
        0x00003410:    0365033c    <.e.    DCD    56951612
        0x00003414:    03b8038e    ....    DCD    62391182
        0x00003418:    040e03e3    ....    DCD    68027363
        0x0000341c:    0467043a    :.g.    DCD    73860154
        0x00003420:    04c20494    ....    DCD    79824020
        0x00003424:    051f04f0    ....    DCD    85918960
        0x00003428:    057d054e    N.}.    DCD    92079438
        0x0000342c:    05dd05ad    ....    DCD    98370989
        0x00003430:    063f060e    ..?.    DCD    104793614
        0x00003434:    06a10670    p...    DCD    111216240
        0x00003438:    070506d3    ....    DCD    117769939
        0x0000343c:    07690737    7.i.    DCD    124323639
        0x00003440:    07cd079b    ....    DCD    130877339
    g_u32ArraySize
        0x00003444:    00000100    ....    DCD    256
    __FUNCTION__
        0x00003448:    5f434144    DAC_    DCD    1598243140
        0x0000344c:    74696e49    Init    DCD    1953066569
        0x00003450:    00          .       DCB    0
    __FUNCTION__
        0x00003451:    414443      ADC     DCB    65,68,67
        0x00003454:    5f6f545f    _To_    DCD    1601131615
        0x00003458:    746c6f56    Volt    DCD    1953263446
        0x0000345c:    00656761    age.    DCD    6645601
    .constdata
    __FUNCTION__
        0x00003460:    78433249    I2Cx    DCD    2017669705
        0x00003464:    73614d5f    _Mas    DCD    1935756639
        0x00003468:    5f726574    ter_    DCD    1601332596
        0x0000346c:    4f495047    GPIO    DCD    1330204743
        0x00003470:    6365525f    _Rec    DCD    1667584607
        0x00003474:    7265766f    over    DCD    1919252079
        0x00003478:    00000000    ....    DCD    0
    Region$$Table$$Base
        0x0000347c:    0000349c    .4..    DCD    13468
        0x00003480:    20000000    ...     DCD    536870912
        0x00003484:    00000070    p...    DCD    112
        0x00003488:    00002934    4)..    DCD    10548
        0x0000348c:    0000350c    .5..    DCD    13580
        0x00003490:    20000070    p..     DCD    536871024
        0x00003494:    00000458    X...    DCD    1112
        0x00003498:    00002944    D)..    DCD    10564
    Region$$Table$$Limit

** Section #2 'ER_RW' (SHT_PROGBITS) [SHF_ALLOC + SHF_WRITE]
    Size   : 112 bytes (alignment 4)
    Address: 0x20000000


** Section #3 'ER_ZI' (SHT_NOBITS) [SHF_ALLOC + SHF_WRITE]
    Size   : 1112 bytes (alignment 8)
    Address: 0x20000070


** Section #4 '.debug_abbrev' (SHT_PROGBITS)
    Size   : 1476 bytes


** Section #5 '.debug_frame' (SHT_PROGBITS)
    Size   : 3396 bytes


** Section #6 '.debug_info' (SHT_PROGBITS)
    Size   : 51344 bytes


** Section #7 '.debug_line' (SHT_PROGBITS)
    Size   : 19004 bytes


** Section #8 '.debug_loc' (SHT_PROGBITS)
    Size   : 5904 bytes


** Section #9 '.debug_macinfo' (SHT_PROGBITS)
    Size   : 126164 bytes


** Section #10 '.debug_pubnames' (SHT_PROGBITS)
    Size   : 4383 bytes


** Section #11 '.symtab' (SHT_SYMTAB)
    Size   : 10352 bytes (alignment 4)
    String table #12 '.strtab'
    Last local symbol no. 410


** Section #12 '.strtab' (SHT_STRTAB)
    Size   : 7552 bytes


** Section #13 '.note' (SHT_NOTE)
    Size   : 28 bytes (alignment 4)


** Section #14 '.comment' (SHT_PROGBITS)
    Size   : 16372 bytes


** Section #15 '.shstrtab' (SHT_STRTAB)
    Size   : 156 bytes


